ccollections
defaultdict
p0
(c__builtin__
bool
p1
tp2
Rp3
(S'fc2'
p4
I198
tp5
(cnumpy.core.multiarray
scalar
p6
(cnumpy
dtype
p7
(S'f4'
p8
I0
I1
tp9
Rp10
(I3
S'<'
p11
NNNI-1
I-1
I0
tp12
bS'\x00\x00\x00\x00'
p13
tp14
Rp15
g6
(g10
S'\x10F9A'
p16
tp17
Rp18
tp19
s(S'fc1'
p20
I123
tp21
(g6
(g10
S'\x00\x00\x00\x00'
p22
tp23
Rp24
g6
(g10
S'7\xf1\x10A'
p25
tp26
Rp27
tp28
s(g4
I107
tp29
(g6
(g10
S'\x00\x00\x00\x00'
p30
tp31
Rp32
g6
(g10
S'\xe3R\xd4@'
p33
tp34
Rp35
tp36
s(g20
I29
tp37
(g6
(g10
S'\x00\x00\x00\x00'
p38
tp39
Rp40
g6
(g10
S'~\x1c\xb3A'
p41
tp42
Rp43
tp44
s(g20
I148
tp45
(g6
(g10
S'\x00\x00\x00\x00'
p46
tp47
Rp48
g6
(g10
S'\x01[\x81A'
p49
tp50
Rp51
tp52
s(g4
I26
tp53
(g6
(g10
S'\x00\x00\x00\x00'
p54
tp55
Rp56
g6
(g10
S'\x0bn\xefA'
p57
tp58
Rp59
tp60
s(g4
I147
tp61
(g6
(g10
S'\x00\x00\x00\x00'
p62
tp63
Rp64
g6
(g10
S'b\xc1lA'
p65
tp66
Rp67
tp68
s(g20
I55
tp69
(g6
(g10
S'\x00\x00\x00\x00'
p70
tp71
Rp72
g6
(g10
S'>\xda@A'
p73
tp74
Rp75
tp76
s(g20
I142
tp77
(g6
(g10
S'\x00\x00\x00\x00'
p78
tp79
Rp80
g6
(g10
S'P4\x7fA'
p81
tp82
Rp83
tp84
s(g4
I52
tp85
(g6
(g10
S'\x00\x00\x00\x00'
p86
tp87
Rp88
g6
(g10
S'\x06\xdf\xa4@'
p89
tp90
Rp91
tp92
s(g4
I141
tp93
(g6
(g10
S'\x00\x00\x00\x00'
p94
tp95
Rp96
g6
(g10
S'\xd1w/A'
p97
tp98
Rp99
tp100
s(g20
I41
tp101
(g6
(g10
S'\x00\x00\x00\x00'
p102
tp103
Rp104
g6
(g10
S'(\xe2PA'
p105
tp106
Rp107
tp108
s(g20
I160
tp109
(g6
(g10
S'\x00\x00\x00\x00'
p110
tp111
Rp112
g6
(g10
S'\x9c\x0cnA'
p113
tp114
Rp115
tp116
s(g4
I46
tp117
(g6
(g10
S'\x00\x00\x00\x00'
p118
tp119
Rp120
g6
(g10
S'!\xd3QA'
p121
tp122
Rp123
tp124
s(g4
I167
tp125
(g6
(g10
S'\x00\x00\x00\x00'
p126
tp127
Rp128
g6
(g10
S'\x8b\x84OA'
p129
tp130
Rp131
tp132
s(g20
I90
tp133
(g6
(g10
S'\x00\x00\x00\x00'
p134
tp135
Rp136
g6
(g10
S'\x86N\x8eA'
p137
tp138
Rp139
tp140
s(g4
I72
tp141
(g6
(g10
S'\x00\x00\x00\x00'
p142
tp143
Rp144
g6
(g10
S'\xa7\x1b=A'
p145
tp146
Rp147
tp148
s(g4
I193
tp149
(g6
(g10
S'\x00\x00\x00\x00'
p150
tp151
Rp152
g6
(g10
S'z\x8b\xc6A'
p153
tp154
Rp155
tp156
s(g20
I124
tp157
(g6
(g10
S'\x00\x00\x00\x00'
p158
tp159
Rp160
g6
(g10
S'$\x7f\xb7A'
p161
tp162
Rp163
tp164
s(g4
I98
tp165
(g6
(g10
S'\x00\x00\x00\x00'
p166
tp167
Rp168
g6
(g10
S'\xad\x05\xc4A'
p169
tp170
Rp171
tp172
s(g20
I22
tp173
(g6
(g10
S'\x00\x00\x00\x00'
p174
tp175
Rp176
g6
(g10
S"\x97'2A"
p177
tp178
Rp179
tp180
s(g4
I21
tp181
(g6
(g10
S'\x00\x00\x00\x00'
p182
tp183
Rp184
g6
(g10
S'\x11YSA'
p185
tp186
Rp187
tp188
s(g20
I8
tp189
(g6
(g10
S'\x00\x00\x00\x00'
p190
tp191
Rp192
g6
(g10
S'\x13\xaa\xb4A'
p193
tp194
Rp195
tp196
s(g20
I135
tp197
(g6
(g10
S'\x00\x00\x00\x00'
p198
tp199
Rp200
g6
(g10
S'\xa5G\x8bA'
p201
tp202
Rp203
tp204
s(g4
I15
tp205
(g6
(g10
S'\x00\x00\x00\x00'
p206
tp207
Rp208
g6
(g10
S'\xfb$YA'
p209
tp210
Rp211
tp212
s(g4
I132
tp213
(g6
(g10
S'\x00\x00\x00\x00'
p214
tp215
Rp216
g6
(g10
S'\xc9\xf5-A'
p217
tp218
Rp219
tp220
s(g20
I34
tp221
(g6
(g10
S'\x00\x00\x00\x00'
p222
tp223
Rp224
g6
(g10
S'\x90\xfd\x04B'
p225
tp226
Rp227
tp228
s(g20
I185
tp229
(g6
(g10
S'\x00\x00\x00\x00'
p230
tp231
Rp232
g6
(g10
S'*\x1c\x89A'
p233
tp234
Rp235
tp236
s(g4
I41
tp237
(g6
(g10
S'\x00\x00\x00\x00'
p238
tp239
Rp240
g6
(g10
S'!\xf8*A'
p241
tp242
Rp243
tp244
s(g4
I190
tp245
(g6
(g10
S'\x00\x00\x00\x00'
p246
tp247
Rp248
g6
(g10
S'\xdc\xd9$A'
p249
tp250
Rp251
tp252
s(g20
I83
tp253
(g6
(g10
S'\x00\x00\x00\x00'
p254
tp255
Rp256
g6
(g10
S'3aIA'
p257
tp258
Rp259
tp260
s(g4
I67
tp261
(g6
(g10
S'\x00\x00\x00\x00'
p262
tp263
Rp264
g6
(g10
S'\xc1f\x84A'
p265
tp266
Rp267
tp268
s(S'predictions'
p269
I0
tp270
(g6
(g10
S'~\x0e\x14\x19'
p271
tp272
Rp273
g6
(g10
S'\x00\x00\x80?'
p274
tp275
Rp276
tp277
s(g20
I117
tp278
(g6
(g10
S'\x00\x00\x00\x00'
p279
tp280
Rp281
g6
(g10
S'\xf1\x9b\xb1A'
p282
tp283
Rp284
tp285
s(g4
I125
tp286
(g6
(g10
S'\x00\x00\x00\x00'
p287
tp288
Rp289
g6
(g10
S'\xe2\xb2\xe1A'
p290
tp291
Rp292
tp293
s(g20
I111
tp294
(g6
(g10
S'\x00\x00\x00\x00'
p295
tp296
Rp297
g6
(g10
S'\xe3\xe3\xadA'
p298
tp299
Rp300
tp301
s(g20
I1
tp302
(g6
(g10
S'\x00\x00\x00\x00'
p303
tp304
Rp305
g6
(g10
S'\xc8\xa8\x80A'
p306
tp307
Rp308
tp309
s(g20
I152
tp310
(g6
(g10
S'\x00\x00\x00\x00'
p311
tp312
Rp313
g6
(g10
S'\x84\xe2\x16B'
p314
tp315
Rp316
tp317
s(g4
I6
tp318
(g6
(g10
S'\x00\x00\x00\x00'
p319
tp320
Rp321
g6
(g10
S'By\xf6A'
p322
tp323
Rp324
tp325
s(g4
I159
tp326
(g6
(g10
S'\x00\x00\x00\x00'
p327
tp328
Rp329
g6
(g10
S'v\x1c;A'
p330
tp331
Rp332
tp333
s(g20
I59
tp334
(g6
(g10
S'\x00\x00\x00\x00'
p335
tp336
Rp337
g6
(g10
S'\x03:,A'
p338
tp339
Rp340
tp341
s(g20
I178
tp342
(g6
(g10
S'\x00\x00\x00\x00'
p343
tp344
Rp345
g6
(g10
S'\x87\x80\xa9A'
p346
tp347
Rp348
tp349
s(g4
I32
tp350
(g6
(g10
S'\x00\x00\x00\x00'
p351
tp352
Rp353
g6
(g10
S'\xa9\x9d\x08A'
p354
tp355
Rp356
tp357
s(g4
I185
tp358
(g6
(g10
S'\x00\x00\x00\x00'
p359
tp360
Rp361
g6
(g10
S'~\xf0\x88A'
p362
tp363
Rp364
tp365
s(g20
I84
tp366
(g6
(g10
S'\x00\x00\x00\x00'
p367
tp368
Rp369
g6
(g10
S'q]{A'
p370
tp371
Rp372
tp373
s(g4
I90
tp374
(g6
(g10
S'\x00\x00\x00\x00'
p375
tp376
Rp377
g6
(g10
S'\xe3+8A'
p378
tp379
Rp380
tp381
s(g20
I78
tp382
(g6
(g10
S'\x00\x00\x00\x00'
p383
tp384
Rp385
g6
(g10
S'7P\x94A'
p386
tp387
Rp388
tp389
s(g4
I116
tp390
(g6
(g10
S'\x00\x00\x00\x00'
p391
tp392
Rp393
g6
(g10
S'j\xba;A'
p394
tp395
Rp396
tp397
s(g20
I197
tp398
(g6
(g10
S'\x00\x00\x00\x00'
p399
tp400
Rp401
g6
(g10
S'\x85\xdciA'
p402
tp403
Rp404
tp405
s(g20
I96
tp406
(g6
(g10
S'\x00\x00\x00\x00'
p407
tp408
Rp409
g6
(g10
S'\x14\xe1\x87A'
p410
tp411
Rp412
tp413
s(g4
I110
tp414
(g6
(g10
S'\x00\x00\x00\x00'
p415
tp416
Rp417
g6
(g10
S'W\xf2?A'
p418
tp419
Rp420
tp421
s(g20
I26
tp422
(g6
(g10
S'\x00\x00\x00\x00'
p423
tp424
Rp425
g6
(g10
S'\xb4\xe2zA'
p426
tp427
Rp428
tp429
s(g20
I145
tp430
(g6
(g10
S'\x00\x00\x00\x00'
p431
tp432
Rp433
g6
(g10
S'\xdf\xa1\x93A'
p434
tp435
Rp436
tp437
s(g4
I1
tp438
(g6
(g10
S'\x00\x00\x00\x00'
p439
tp440
Rp441
g6
(g10
S'_\xaapA'
p442
tp443
Rp444
tp445
s(g4
I150
tp446
(g6
(g10
S'\x00\x00\x00\x00'
p447
tp448
Rp449
g6
(g10
S'\x92{hA'
p450
tp451
Rp452
tp453
s(g20
I60
tp454
(g6
(g10
S'\x00\x00\x00\x00'
p455
tp456
Rp457
g6
(g10
S'?\x14\x85A'
p458
tp459
Rp460
tp461
s(g20
I139
tp462
(g6
(g10
S'\x00\x00\x00\x00'
p463
tp464
Rp465
g6
(g10
S'd)\xacA'
p466
tp467
Rp468
tp469
s(g4
I59
tp470
(g6
(g10
S'\x00\x00\x00\x00'
p471
tp472
Rp473
g6
(g10
S'\xb0=\x95A'
p474
tp475
Rp476
tp477
s(g4
I176
tp478
(g6
(g10
S'\x00\x00\x00\x00'
p479
tp480
Rp481
g6
(g10
S'nf\xb4A'
p482
tp483
Rp484
tp485
s(g20
I173
tp486
(g6
(g10
S'\x00\x00\x00\x00'
p487
tp488
Rp489
g6
(g10
S'\x07\x96\xbbA'
p490
tp491
Rp492
tp493
s(g4
I85
tp494
(g6
(g10
S'\x00\x00\x00\x00'
p495
tp496
Rp497
g6
(g10
S'\xde\x07\x07B'
p498
tp499
Rp500
tp501
s(g4
I170
tp502
(g6
(g10
S'\x00\x00\x00\x00'
p503
tp504
Rp505
g6
(g10
S'5\x94\x92A'
p506
tp507
Rp508
tp509
s(g20
I71
tp510
(g6
(g10
S'\x00\x00\x00\x00'
p511
tp512
Rp513
g6
(g10
S'\x84\xd2\xb1A'
p514
tp515
Rp516
tp517
s(g4
I79
tp518
(g6
(g10
S'\x00\x00\x00\x00'
p519
tp520
Rp521
g6
(g10
S' \xcc\x10A'
p522
tp523
Rp524
tp525
s(g4
I196
tp526
(g6
(g10
S'\x00\x00\x00\x00'
p527
tp528
Rp529
g6
(g10
S'\xbc\xabsA'
p530
tp531
Rp532
tp533
s(g20
I121
tp534
(g6
(g10
S'\x00\x00\x00\x00'
p535
tp536
Rp537
g6
(g10
S'\x12\xb4uA'
p538
tp539
Rp540
tp541
s(g4
I105
tp542
(g6
(g10
S'\x00\x00\x00\x00'
p543
tp544
Rp545
g6
(g10
S'\xb7\x86+A'
p546
tp547
Rp548
tp549
s(g20
I19
tp550
(g6
(g10
S'\x00\x00\x00\x00'
p551
tp552
Rp553
g6
(g10
S'C`\x81A'
p554
tp555
Rp556
tp557
s(g4
I24
tp558
(g6
(g10
S'\x00\x00\x00\x00'
p559
tp560
Rp561
g6
(g10
S'4<\x97A'
p562
tp563
Rp564
tp565
s(g4
I145
tp566
(g6
(g10
S'\x00\x00\x00\x00'
p567
tp568
Rp569
g6
(g10
S'\x82\xc0\xd5A'
p570
tp571
Rp572
tp573
s(g20
I53
tp574
(g6
(g10
S'\x00\x00\x00\x00'
p575
tp576
Rp577
g6
(g10
S'"\x03wA'
p578
tp579
Rp580
tp581
s(g20
I140
tp582
(g6
(g10
S'\x00\x00\x00\x00'
p583
tp584
Rp585
g6
(g10
S'\xd7\x93fA'
p586
tp587
Rp588
tp589
s(g4
I50
tp590
(g6
(g10
S'\x00\x00\x00\x00'
p591
tp592
Rp593
g6
(g10
S"b\xfc'A"
p594
tp595
Rp596
tp597
s(g4
I139
tp598
(g6
(g10
S'\x00\x00\x00\x00'
p599
tp600
Rp601
g6
(g10
S'\xd7{\xd8?'
p602
tp603
Rp604
tp605
s(g20
I47
tp606
(g6
(g10
S'\x00\x00\x00\x00'
p607
tp608
Rp609
g6
(g10
S'\xc9\xbfqA'
p610
tp611
Rp612
tp613
s(g20
I166
tp614
(g6
(g10
S'\x00\x00\x00\x00'
p615
tp616
Rp617
g6
(g10
S'ZY\xc0A'
p618
tp619
Rp620
tp621
s(g4
I44
tp622
(g6
(g10
S'\x00\x00\x00\x00'
p623
tp624
Rp625
g6
(g10
S'I\x18\x9dA'
p626
tp627
Rp628
tp629
s(g4
I165
tp630
(g6
(g10
S'\x00\x00\x00\x00'
p631
tp632
Rp633
g6
(g10
S'W=\xbdA'
p634
tp635
Rp636
tp637
s(g20
I88
tp638
(g6
(g10
S'\x00\x00\x00\x00'
p639
tp640
Rp641
g6
(g10
S'\xa0\xb7JA'
p642
tp643
Rp644
tp645
s(g4
I70
tp646
(g6
(g10
S'\x00\x00\x00\x00'
p647
tp648
Rp649
g6
(g10
S'\xe5\xf8\xaaA'
p650
tp651
Rp652
tp653
s(g20
I114
tp654
(g6
(g10
S'\x00\x00\x00\x00'
p655
tp656
Rp657
g6
(g10
S',\xcd|A'
p658
tp659
Rp660
tp661
s(g4
I96
tp662
(g6
(g10
S'\x00\x00\x00\x00'
p663
tp664
Rp665
g6
(g10
S'X\x82tA'
p666
tp667
Rp668
tp669
s(g20
I20
tp670
(g6
(g10
S'\x00\x00\x00\x00'
p671
tp672
Rp673
g6
(g10
S'\xdd\xbb\x81A'
p674
tp675
Rp676
tp677
s(g4
I19
tp678
(g6
(g10
S'\x00\x00\x00\x00'
p679
tp680
Rp681
g6
(g10
S'\xcc\x8d\x8dA'
p682
tp683
Rp684
tp685
s(g20
I14
tp686
(g6
(g10
S'\x00\x00\x00\x00'
p687
tp688
Rp689
g6
(g10
S'\x9b\xa6\xee@'
p690
tp691
Rp692
tp693
s(g20
I133
tp694
(g6
(g10
S'\x00\x00\x00\x00'
p695
tp696
Rp697
g6
(g10
S'\xd5\x7f\x1cA'
p698
tp699
Rp700
tp701
s(g4
I13
tp702
(g6
(g10
S'\x00\x00\x00\x00'
p703
tp704
Rp705
g6
(g10
S'\x97^UA'
p706
tp707
Rp708
tp709
s(g4
I130
tp710
(g6
(g10
S'\x00\x00\x00\x00'
p711
tp712
Rp713
g6
(g10
S'U}\x88A'
p714
tp715
Rp716
tp717
s(g20
I32
tp718
(g6
(g10
S'\x00\x00\x00\x00'
p719
tp720
Rp721
g6
(g10
S'\xe4\x83\x98A'
p722
tp723
Rp724
tp725
s(g20
I191
tp726
(g6
(g10
S'\x00\x00\x00\x00'
p727
tp728
Rp729
g6
(g10
S'\xff7\xafA'
p730
tp731
Rp732
tp733
s(g4
I39
tp734
(g6
(g10
S'\x00\x00\x00\x00'
p735
tp736
Rp737
g6
(g10
S'"U\xcf@'
p738
tp739
Rp740
tp741
s(g4
I188
tp742
(g6
(g10
S'\x00\x00\x00\x00'
p743
tp744
Rp745
g6
(g10
S'\x8e\xfc\xacA'
p746
tp747
Rp748
tp749
s(g20
I81
tp750
(g6
(g10
S'\x00\x00\x00\x00'
p751
tp752
Rp753
g6
(g10
S'\xe4\x11\xd2A'
p754
tp755
Rp756
tp757
s(g4
I65
tp758
(g6
(g10
S'\x00\x00\x00\x00'
p759
tp760
Rp761
g6
(g10
S'\x1d\x13gA'
p762
tp763
Rp764
tp765
s(g20
I75
tp766
(g6
(g10
S'\x00\x00\x00\x00'
p767
tp768
Rp769
g6
(g10
S'\xb6Q\xeaA'
p770
tp771
Rp772
tp773
s(g4
I123
tp774
(g6
(g10
S'\x00\x00\x00\x00'
p775
tp776
Rp777
g6
(g10
S'A\xdc\xc3A'
p778
tp779
Rp780
tp781
s(g20
I194
tp782
(g6
(g10
S'\x00\x00\x00\x00'
p783
tp784
Rp785
g6
(g10
S'\xc7W\x87A'
p786
tp787
Rp788
tp789
s(g20
I109
tp790
(g6
(g10
S'\x00\x00\x00\x00'
p791
tp792
Rp793
g6
(g10
S'+n\x9dA'
p794
tp795
Rp796
tp797
s(g20
I7
tp798
(g6
(g10
S'\x00\x00\x00\x00'
p799
tp800
Rp801
g6
(g10
S'"\x9f@A'
p802
tp803
Rp804
tp805
s(g20
I158
tp806
(g6
(g10
S'\x00\x00\x00\x00'
p807
tp808
Rp809
g6
(g10
S'\xe1}IA'
p810
tp811
Rp812
tp813
s(g4
I4
tp814
(g6
(g10
S'\x00\x00\x00\x00'
p815
tp816
Rp817
g6
(g10
S'\xf1*\x85A'
p818
tp819
Rp820
tp821
s(g4
I157
tp822
(g6
(g10
S'\x00\x00\x00\x00'
p823
tp824
Rp825
g6
(g10
S'\xf8\x98XA'
p826
tp827
Rp828
tp829
s(g20
I57
tp830
(g6
(g10
S'\x00\x00\x00\x00'
p831
tp832
Rp833
g6
(g10
S'\xadv<A'
p834
tp835
Rp836
tp837
s(g20
I176
tp838
(g6
(g10
S'\x00\x00\x00\x00'
p839
tp840
Rp841
g6
(g10
S'\x87"\xa2A'
p842
tp843
Rp844
tp845
s(g4
I62
tp846
(g6
(g10
S'\x00\x00\x00\x00'
p847
tp848
Rp849
g6
(g10
S'}\xd4\x83A'
p850
tp851
Rp852
tp853
s(g4
I183
tp854
(g6
(g10
S'\x00\x00\x00\x00'
p855
tp856
Rp857
g6
(g10
S'SD\x9fA'
p858
tp859
Rp860
tp861
s(g20
I170
tp862
(g6
(g10
S'\x00\x00\x00\x00'
p863
tp864
Rp865
g6
(g10
S'PP\x88A'
p866
tp867
Rp868
tp869
s(g4
I88
tp870
(g6
(g10
S'\x00\x00\x00\x00'
p871
tp872
Rp873
g6
(g10
S'\xfb\x9frA'
p874
tp875
Rp876
tp877
s(g20
I76
tp878
(g6
(g10
S'\x00\x00\x00\x00'
p879
tp880
Rp881
g6
(g10
S'\x8e\x9f7A'
p882
tp883
Rp884
tp885
s(g4
I114
tp886
(g6
(g10
S'\x00\x00\x00\x00'
p887
tp888
Rp889
g6
(g10
S'\xf5\xcc\xa3A'
p890
tp891
Rp892
tp893
s(g20
I102
tp894
(g6
(g10
S'\x00\x00\x00\x00'
p895
tp896
Rp897
g6
(g10
S'\xfe\xa5kA'
p898
tp899
Rp900
tp901
s(g4
I108
tp902
(g6
(g10
S'\x00\x00\x00\x00'
p903
tp904
Rp905
g6
(g10
S'\xda\x1a\x12A'
p906
tp907
Rp908
tp909
s(g20
I24
tp910
(g6
(g10
S'\x00\x00\x00\x00'
p911
tp912
Rp913
g6
(g10
S'#@nA'
p914
tp915
Rp916
tp917
s(g20
I151
tp918
(g6
(g10
S'\x00\x00\x00\x00'
p919
tp920
Rp921
g6
(g10
S'\x07p\xb5A'
p922
tp923
Rp924
tp925
s(g4
I31
tp926
(g6
(g10
S'\x00\x00\x00\x00'
p927
tp928
Rp929
g6
(g10
S'n-1A'
p930
tp931
Rp932
tp933
s(g4
I148
tp934
(g6
(g10
S'\x00\x00\x00\x00'
p935
tp936
Rp937
g6
(g10
S'\xca\xe9\xb7A'
p938
tp939
Rp940
tp941
s(g20
I50
tp942
(g6
(g10
S'\x00\x00\x00\x00'
p943
tp944
Rp945
g6
(g10
S'\xb2 zA'
p946
tp947
Rp948
tp949
s(g20
I137
tp950
(g6
(g10
S'\x00\x00\x00\x00'
p951
tp952
Rp953
g6
(g10
S'=%JA'
p954
tp955
Rp956
tp957
s(g4
I57
tp958
(g6
(g10
S'\x00\x00\x00\x00'
p959
tp960
Rp961
g6
(g10
S'h\xe0q@'
p962
tp963
Rp964
tp965
s(g4
I142
tp966
(g6
(g10
S'\x00\x00\x00\x00'
p967
tp968
Rp969
g6
(g10
S'@\xe2\x12A'
p970
tp971
Rp972
tp973
s(g20
I163
tp974
(g6
(g10
S'\x00\x00\x00\x00'
p975
tp976
Rp977
g6
(g10
S'\x12\x86yA'
p978
tp979
Rp980
tp981
s(g4
I83
tp982
(g6
(g10
S'\x00\x00\x00\x00'
p983
tp984
Rp985
g6
(g10
S'\xa7\x17EA'
p986
tp987
Rp988
tp989
s(g4
I168
tp990
(g6
(g10
S'\x00\x00\x00\x00'
p991
tp992
Rp993
g6
(g10
S'tR\x1fA'
p994
tp995
Rp996
tp997
s(g20
I69
tp998
(g6
(g10
S'\x00\x00\x00\x00'
p999
tp1000
Rp1001
g6
(g10
S'i\xa3\x9dA'
p1002
tp1003
Rp1004
tp1005
s(g4
I77
tp1006
(g6
(g10
S'\x00\x00\x00\x00'
p1007
tp1008
Rp1009
g6
(g10
S'\xcc\x81\xed@'
p1010
tp1011
Rp1012
tp1013
s(g4
I194
tp1014
(g6
(g10
S'\x00\x00\x00\x00'
p1015
tp1016
Rp1017
g6
(g10
S'\xe4j\xcaA'
p1018
tp1019
Rp1020
tp1021
s(g20
I127
tp1022
(g6
(g10
S'\x00\x00\x00\x00'
p1023
tp1024
Rp1025
g6
(g10
S'8J\xa9A'
p1026
tp1027
Rp1028
tp1029
s(g4
I103
tp1030
(g6
(g10
S'\x00\x00\x00\x00'
p1031
tp1032
Rp1033
g6
(g10
S'S\x08\x90A'
p1034
tp1035
Rp1036
tp1037
s(g20
I17
tp1038
(g6
(g10
S'\x00\x00\x00\x00'
p1039
tp1040
Rp1041
g6
(g10
S'\\[>A'
p1042
tp1043
Rp1044
tp1045
s(g4
I22
tp1046
(g6
(g10
S'\x00\x00\x00\x00'
p1047
tp1048
Rp1049
g6
(g10
S'\xad\xc0\x01@'
p1050
tp1051
Rp1052
tp1053
s(g20
I11
tp1054
(g6
(g10
S'\x00\x00\x00\x00'
p1055
tp1056
Rp1057
g6
(g10
S'\x7f\xfdBA'
p1058
tp1059
Rp1060
tp1061
s(g20
I130
tp1062
(g6
(g10
S'\x00\x00\x00\x00'
p1063
tp1064
Rp1065
g6
(g10
S'r<\xf9A'
p1066
tp1067
Rp1068
tp1069
s(g4
I48
tp1070
(g6
(g10
S'\x00\x00\x00\x00'
p1071
tp1072
Rp1073
g6
(g10
S'[\x1fsA'
p1074
tp1075
Rp1076
tp1077
s(g4
I137
tp1078
(g6
(g10
S'\x00\x00\x00\x00'
p1079
tp1080
Rp1081
g6
(g10
S"'\xba\x89A"
p1082
tp1083
Rp1084
tp1085
s(g20
I45
tp1086
(g6
(g10
S'\x00\x00\x00\x00'
p1087
tp1088
Rp1089
g6
(g10
S'G\xf8RA'
p1090
tp1091
Rp1092
tp1093
s(g20
I164
tp1094
(g6
(g10
S'\x00\x00\x00\x00'
p1095
tp1096
Rp1097
g6
(g10
S'c\xd7uA'
p1098
tp1099
Rp1100
tp1101
s(g4
I42
tp1102
(g6
(g10
S'\x00\x00\x00\x00'
p1103
tp1104
Rp1105
g6
(g10
S'#\x97\tA'
p1106
tp1107
Rp1108
tp1109
s(g4
I163
tp1110
(g6
(g10
S'\x00\x00\x00\x00'
p1111
tp1112
Rp1113
g6
(g10
S'\xb0\xcf\x0fA'
p1114
tp1115
Rp1116
tp1117
s(g20
I94
tp1118
(g6
(g10
S'\x00\x00\x00\x00'
p1119
tp1120
Rp1121
g6
(g10
S'\xf6\tuA'
p1122
tp1123
Rp1124
tp1125
s(g4
I68
tp1126
(g6
(g10
S'\x00\x00\x00\x00'
p1127
tp1128
Rp1129
g6
(g10
S"\xe8F'A"
p1130
tp1131
Rp1132
tp1133
s(g20
I112
tp1134
(g6
(g10
S'\x00\x00\x00\x00'
p1135
tp1136
Rp1137
g6
(g10
S'Z\x0c\x86A'
p1138
tp1139
Rp1140
tp1141
s(g4
I126
tp1142
(g6
(g10
S'\x00\x00\x00\x00'
p1143
tp1144
Rp1145
g6
(g10
S'\x9a\xf4\x8bA'
p1146
tp1147
Rp1148
tp1149
s(g20
I106
tp1150
(g6
(g10
S'\x00\x00\x00\x00'
p1151
tp1152
Rp1153
g6
(g10
S'\xb8@\xd5A'
p1154
tp1155
Rp1156
tp1157
s(g4
I17
tp1158
(g6
(g10
S'\x00\x00\x00\x00'
p1159
tp1160
Rp1161
g6
(g10
S'\xe6Z\x92A'
p1162
tp1163
Rp1164
tp1165
s(g20
I12
tp1166
(g6
(g10
S'\x00\x00\x00\x00'
p1167
tp1168
Rp1169
g6
(g10
S't\xa2&A'
p1170
tp1171
Rp1172
tp1173
s(g20
I155
tp1174
(g6
(g10
S'\x00\x00\x00\x00'
p1175
tp1176
Rp1177
g6
(g10
S')2kA'
p1178
tp1179
Rp1180
tp1181
s(g4
I11
tp1182
(g6
(g10
S'\x00\x00\x00\x00'
p1183
tp1184
Rp1185
g6
(g10
S'\x81y\xc3@'
p1186
tp1187
Rp1188
tp1189
s(g4
I128
tp1190
(g6
(g10
S'\x00\x00\x00\x00'
p1191
tp1192
Rp1193
g6
(g10
S'\xb99\xd0A'
p1194
tp1195
Rp1196
tp1197
s(g20
I38
tp1198
(g6
(g10
S'\x00\x00\x00\x00'
p1199
tp1200
Rp1201
g6
(g10
S'<\x9f\xaeA'
p1202
tp1203
Rp1204
tp1205
s(g20
I189
tp1206
(g6
(g10
S'\x00\x00\x00\x00'
p1207
tp1208
Rp1209
g6
(g10
S'}\x876A'
p1210
tp1211
Rp1212
tp1213
s(g4
I37
tp1214
(g6
(g10
S'\x00\x00\x00\x00'
p1215
tp1216
Rp1217
g6
(g10
S'H\t\xcbA'
p1218
tp1219
Rp1220
tp1221
s(g4
I186
tp1222
(g6
(g10
S'\x00\x00\x00\x00'
p1223
tp1224
Rp1225
g6
(g10
S'{\xca\xb3@'
p1226
tp1227
Rp1228
tp1229
s(S'before_softmax'
p1230
I0
tp1231
(g6
(g10
S'\xab\xf9\x93\xc1'
p1232
tp1233
Rp1234
g6
(g10
S'\x82\x9f\xc1B'
p1235
tp1236
Rp1237
tp1238
s(g20
I87
tp1239
(g6
(g10
S'\x00\x00\x00\x00'
p1240
tp1241
Rp1242
g6
(g10
S'\x91\xe7|A'
p1243
tp1244
Rp1245
tp1246
s(g4
I95
tp1247
(g6
(g10
S'\x00\x00\x00\x00'
p1248
tp1249
Rp1250
g6
(g10
S'\x05\xcc\x95A'
p1251
tp1252
Rp1253
tp1254
s(g20
I73
tp1255
(g6
(g10
S'\x00\x00\x00\x00'
p1256
tp1257
Rp1258
g6
(g10
S'\xd7\x8awA'
p1259
tp1260
Rp1261
tp1262
s(g4
I121
tp1263
(g6
(g10
S'\x00\x00\x00\x00'
p1264
tp1265
Rp1266
g6
(g10
S'\xc0\x8e\xd6A'
p1267
tp1268
Rp1269
tp1270
s(g20
I192
tp1271
(g6
(g10
S'\x00\x00\x00\x00'
p1272
tp1273
Rp1274
g6
(g10
S'a>\xb1A'
p1275
tp1276
Rp1277
tp1278
s(g20
I99
tp1279
(g6
(g10
S'\x00\x00\x00\x00'
p1280
tp1281
Rp1282
g6
(g10
S'\xb0\x04wA'
p1283
tp1284
Rp1285
tp1286
s(g20
I5
tp1287
(g6
(g10
S'\x00\x00\x00\x00'
p1288
tp1289
Rp1290
g6
(g10
S':\x03\x86A'
p1291
tp1292
Rp1293
tp1294
s(g20
I156
tp1295
(g6
(g10
S'\x00\x00\x00\x00'
p1296
tp1297
Rp1298
g6
(g10
S'F31A'
p1299
tp1300
Rp1301
tp1302
s(g4
I2
tp1303
(g6
(g10
S'\x00\x00\x00\x00'
p1304
tp1305
Rp1306
g6
(g10
S'\xc4\xc1@A'
p1307
tp1308
Rp1309
tp1310
s(g4
I155
tp1311
(g6
(g10
S'\x00\x00\x00\x00'
p1312
tp1313
Rp1314
g6
(g10
S'j&tA'
p1315
tp1316
Rp1317
tp1318
s(g20
I63
tp1319
(g6
(g10
S'\x00\x00\x00\x00'
p1320
tp1321
Rp1322
g6
(g10
S'\t6KA'
p1323
tp1324
Rp1325
tp1326
s(g20
I182
tp1327
(g6
(g10
S'\x00\x00\x00\x00'
p1328
tp1329
Rp1330
g6
(g10
S'"A\xd3A'
p1331
tp1332
Rp1333
tp1334
s(g4
I60
tp1335
(g6
(g10
S'\x00\x00\x00\x00'
p1336
tp1337
Rp1338
g6
(g10
S'\xb4\xdd#A'
p1339
tp1340
Rp1341
tp1342
s(g4
I181
tp1343
(g6
(g10
S'\x00\x00\x00\x00'
p1344
tp1345
Rp1346
g6
(g10
S'/\x81\xbcA'
p1347
tp1348
Rp1349
tp1350
s(g20
I168
tp1351
(g6
(g10
S'\x00\x00\x00\x00'
p1352
tp1353
Rp1354
g6
(g10
S'\xf1\x1d_A'
p1355
tp1356
Rp1357
tp1358
s(g4
I86
tp1359
(g6
(g10
S'\x00\x00\x00\x00'
p1360
tp1361
Rp1362
g6
(g10
S'#\x1e\xdb@'
p1363
tp1364
Rp1365
tp1366
s(g4
I175
tp1367
(g6
(g10
S'\x00\x00\x00\x00'
p1368
tp1369
Rp1370
g6
(g10
S'\xf4\x83,A'
p1371
tp1372
Rp1373
tp1374
s(g20
I66
tp1375
(g6
(g10
S'\x00\x00\x00\x00'
p1376
tp1377
Rp1378
g6
(g10
S'\x17\x0eDA'
p1379
tp1380
Rp1381
tp1382
s(g4
I112
tp1383
(g6
(g10
S'\x00\x00\x00\x00'
p1384
tp1385
Rp1386
g6
(g10
S"\xa8F'A"
p1387
tp1388
Rp1389
tp1390
s(g20
I100
tp1391
(g6
(g10
S'\x00\x00\x00\x00'
p1392
tp1393
Rp1394
g6
(g10
S'K\xe3\x8fA'
p1395
tp1396
Rp1397
tp1398
s(g4
I106
tp1399
(g6
(g10
S'\x00\x00\x00\x00'
p1400
tp1401
Rp1402
g6
(g10
S'\xdf\x99%A'
p1403
tp1404
Rp1405
tp1406
s(g20
I30
tp1407
(g6
(g10
S'\x00\x00\x00\x00'
p1408
tp1409
Rp1410
g6
(g10
S'K\xf0\xc2@'
p1411
tp1412
Rp1413
tp1414
s(g20
I149
tp1415
(g6
(g10
S'\x00\x00\x00\x00'
p1416
tp1417
Rp1418
g6
(g10
S'ysQA'
p1419
tp1420
Rp1421
tp1422
s(g4
I29
tp1423
(g6
(g10
S'\x00\x00\x00\x00'
p1424
tp1425
Rp1426
g6
(g10
S'\x01\xefOA'
p1427
tp1428
Rp1429
tp1430
s(g4
I146
tp1431
(g6
(g10
S'\x00\x00\x00\x00'
p1432
tp1433
Rp1434
g6
(g10
S"g\xe8'A"
p1435
tp1436
Rp1437
tp1438
s(g20
I48
tp1439
(g6
(g10
S'\x00\x00\x00\x00'
p1440
tp1441
Rp1442
g6
(g10
S'~w}A'
p1443
tp1444
Rp1445
tp1446
s(g20
I143
tp1447
(g6
(g10
S'\x00\x00\x00\x00'
p1448
tp1449
Rp1450
g6
(g10
S'\r\xec\x91A'
p1451
tp1452
Rp1453
tp1454
s(g4
I55
tp1455
(g6
(g10
S'\x00\x00\x00\x00'
p1456
tp1457
Rp1458
g6
(g10
S'\xf0,\x82A'
p1459
tp1460
Rp1461
tp1462
s(g4
I140
tp1463
(g6
(g10
S'\x00\x00\x00\x00'
p1464
tp1465
Rp1466
g6
(g10
S'\x88\x12\xc6A'
p1467
tp1468
Rp1469
tp1470
s(g20
I42
tp1471
(g6
(g10
S'\x00\x00\x00\x00'
p1472
tp1473
Rp1474
g6
(g10
S'\xd4ZEA'
p1475
tp1476
Rp1477
tp1478
s(g20
I161
tp1479
(g6
(g10
S'\x00\x00\x00\x00'
p1480
tp1481
Rp1482
g6
(g10
S'L`%A'
p1483
tp1484
Rp1485
tp1486
s(g4
I81
tp1487
(g6
(g10
S'\x00\x00\x00\x00'
p1488
tp1489
Rp1490
g6
(g10
S'v\x9b@A'
p1491
tp1492
Rp1493
tp1494
s(g4
I166
tp1495
(g6
(g10
S'\x00\x00\x00\x00'
p1496
tp1497
Rp1498
g6
(g10
S'E%)A'
p1499
tp1500
Rp1501
tp1502
s(g20
I91
tp1503
(g6
(g10
S'\x00\x00\x00\x00'
p1504
tp1505
Rp1506
g6
(g10
S'\xd3$\x88A'
p1507
tp1508
Rp1509
tp1510
s(g4
I75
tp1511
(g6
(g10
S'\x00\x00\x00\x00'
p1512
tp1513
Rp1514
g6
(g10
S'\x97\x17ZA'
p1515
tp1516
Rp1517
tp1518
s(g4
I192
tp1519
(g6
(g10
S'\x00\x00\x00\x00'
p1520
tp1521
Rp1522
g6
(g10
S'\xae\xd0UA'
p1523
tp1524
Rp1525
tp1526
s(g20
I125
tp1527
(g6
(g10
S'\x00\x00\x00\x00'
p1528
tp1529
Rp1530
g6
(g10
S'z;\x88A'
p1531
tp1532
Rp1533
tp1534
s(g4
I101
tp1535
(g6
(g10
S'\x00\x00\x00\x00'
p1536
tp1537
Rp1538
g6
(g10
S'\x8a\x178@'
p1539
tp1540
Rp1541
tp1542
s(g20
I23
tp1543
(g6
(g10
S'\x00\x00\x00\x00'
p1544
tp1545
Rp1546
g6
(g10
S'S.\xc6A'
p1547
tp1548
Rp1549
tp1550
s(g4
I20
tp1551
(g6
(g10
S'\x00\x00\x00\x00'
p1552
tp1553
Rp1554
g6
(g10
S'}\x84\x91A'
p1555
tp1556
Rp1557
tp1558
s(g20
I9
tp1559
(g6
(g10
S'\x00\x00\x00\x00'
p1560
tp1561
Rp1562
g6
(g10
S'\xa1\xcarA'
p1563
tp1564
Rp1565
tp1566
s(g20
I128
tp1567
(g6
(g10
S'\x00\x00\x00\x00'
p1568
tp1569
Rp1570
g6
(g10
S'Oe\xf0@'
p1571
tp1572
Rp1573
tp1574
s(g4
I14
tp1575
(g6
(g10
S'\x00\x00\x00\x00'
p1576
tp1577
Rp1578
g6
(g10
S'59\x02A'
p1579
tp1580
Rp1581
tp1582
s(g4
I135
tp1583
(g6
(g10
S'\x00\x00\x00\x00'
p1584
tp1585
Rp1586
g6
(g10
S'\x1bb\x19A'
p1587
tp1588
Rp1589
tp1590
s(g20
I35
tp1591
(g6
(g10
S'\x00\x00\x00\x00'
p1592
tp1593
Rp1594
g6
(g10
S'(\xb3LA'
p1595
tp1596
Rp1597
tp1598
s(g20
I186
tp1599
(g6
(g10
S'\x00\x00\x00\x00'
p1600
tp1601
Rp1602
g6
(g10
S'\xba\xe2\x8cA'
p1603
tp1604
Rp1605
tp1606
s(g4
I40
tp1607
(g6
(g10
S'\x00\x00\x00\x00'
p1608
tp1609
Rp1610
g6
(g10
S'\x84g\x10A'
p1611
tp1612
Rp1613
tp1614
s(g4
I161
tp1615
(g6
(g10
S'\x00\x00\x00\x00'
p1616
tp1617
Rp1618
g6
(g10
S'\x93\xa2VA'
p1619
tp1620
Rp1621
tp1622
s(g20
I92
tp1623
(g6
(g10
S'\x00\x00\x00\x00'
p1624
tp1625
Rp1626
g6
(g10
S'\x7fz\xbdA'
p1627
tp1628
Rp1629
tp1630
s(g4
I66
tp1631
(g6
(g10
S'\x00\x00\x00\x00'
p1632
tp1633
Rp1634
g6
(g10
S'\x11\xdb\xc6@'
p1635
tp1636
Rp1637
tp1638
s(g269
I1
tp1639
(g6
(g10
S'\x00\x00\x00\x00'
p1640
tp1641
Rp1642
g6
(g10
S'\x00\x00\x80?'
p1643
tp1644
Rp1645
tp1646
s(g20
I118
tp1647
(g6
(g10
S'\x00\x00\x00\x00'
p1648
tp1649
Rp1650
g6
(g10
S'e\xfdhA'
p1651
tp1652
Rp1653
tp1654
s(g4
I124
tp1655
(g6
(g10
S'\x00\x00\x00\x00'
p1656
tp1657
Rp1658
g6
(g10
S'\xbfsN@'
p1659
tp1660
Rp1661
tp1662
s(g20
I104
tp1663
(g6
(g10
S'\x00\x00\x00\x00'
p1664
tp1665
Rp1666
g6
(g10
S'\x01\x87fA'
p1667
tp1668
Rp1669
tp1670
s(g20
I2
tp1671
(g6
(g10
S'\x00\x00\x00\x00'
p1672
tp1673
Rp1674
g6
(g10
S'w@9A'
p1675
tp1676
Rp1677
tp1678
s(g20
I153
tp1679
(g6
(g10
S'\x00\x00\x00\x00'
p1680
tp1681
Rp1682
g6
(g10
S'\xac\xa8YA'
p1683
tp1684
Rp1685
tp1686
s(g4
I9
tp1687
(g6
(g10
S'\x00\x00\x00\x00'
p1688
tp1689
Rp1690
g6
(g10
S'-G\x18@'
p1691
tp1692
Rp1693
tp1694
s(g4
I158
tp1695
(g6
(g10
S'\x00\x00\x00\x00'
p1696
tp1697
Rp1698
g6
(g10
S'y\x1e\x88A'
p1699
tp1700
Rp1701
tp1702
s(g20
I36
tp1703
(g6
(g10
S'\x00\x00\x00\x00'
p1704
tp1705
Rp1706
g6
(g10
S'[<nA'
p1707
tp1708
Rp1709
tp1710
s(g20
I179
tp1711
(g6
(g10
S'\x00\x00\x00\x00'
p1712
tp1713
Rp1714
g6
(g10
S'\xf4jbA'
p1715
tp1716
Rp1717
tp1718
s(g4
I35
tp1719
(g6
(g10
S'\x00\x00\x00\x00'
p1720
tp1721
Rp1722
g6
(g10
S'\xd0*\x82A'
p1723
tp1724
Rp1725
tp1726
s(g4
I184
tp1727
(g6
(g10
S'\x00\x00\x00\x00'
p1728
tp1729
Rp1730
g6
(g10
S'[1IA'
p1731
tp1732
Rp1733
tp1734
s(g20
I85
tp1735
(g6
(g10
S'\x00\x00\x00\x00'
p1736
tp1737
Rp1738
g6
(g10
S'\xb5\xa6\x8bA'
p1739
tp1740
Rp1741
tp1742
s(g4
I93
tp1743
(g6
(g10
S'\x00\x00\x00\x00'
p1744
tp1745
Rp1746
g6
(g10
S'\xbe2\xeb@'
p1747
tp1748
Rp1749
tp1750
s(g20
I79
tp1751
(g6
(g10
S'\x00\x00\x00\x00'
p1752
tp1753
Rp1754
g6
(g10
S'b\x04\x9aA'
p1755
tp1756
Rp1757
tp1758
s(g4
I119
tp1759
(g6
(g10
S'\x00\x00\x00\x00'
p1760
tp1761
Rp1762
g6
(g10
S'`\xc5MA'
p1763
tp1764
Rp1765
tp1766
s(g20
I198
tp1767
(g6
(g10
S'\x00\x00\x00\x00'
p1768
tp1769
Rp1770
g6
(g10
S'\xe8L\x7fA'
p1771
tp1772
Rp1773
tp1774
s(g20
I97
tp1775
(g6
(g10
S'\x00\x00\x00\x00'
p1776
tp1777
Rp1778
g6
(g10
S'\xca6\xc8A'
p1779
tp1780
Rp1781
tp1782
s(g20
I27
tp1783
(g6
(g10
S'\x00\x00\x00\x00'
p1784
tp1785
Rp1786
g6
(g10
S'r\xc8\x98A'
p1787
tp1788
Rp1789
tp1790
s(g20
I146
tp1791
(g6
(g10
S'\x00\x00\x00\x00'
p1792
tp1793
Rp1794
g6
(g10
S'\xebX\xdcA'
p1795
tp1796
Rp1797
tp1798
s(g4
I0
tp1799
(g6
(g10
S'\x00\x00\x00\x00'
p1800
tp1801
Rp1802
g6
(g10
S'\x98\x14<A'
p1803
tp1804
Rp1805
tp1806
s(g4
I153
tp1807
(g6
(g10
S'\x00\x00\x00\x00'
p1808
tp1809
Rp1810
g6
(g10
S'\xf6\xc9"@'
p1811
tp1812
Rp1813
tp1814
s(g20
I61
tp1815
(g6
(g10
S'\x00\x00\x00\x00'
p1816
tp1817
Rp1818
g6
(g10
S'\x16\xa5nA'
p1819
tp1820
Rp1821
tp1822
s(g20
I180
tp1823
(g6
(g10
S'\x00\x00\x00\x00'
p1824
tp1825
Rp1826
g6
(g10
S'M\xa8\xd2A'
p1827
tp1828
Rp1829
tp1830
s(g4
I58
tp1831
(g6
(g10
S'\x00\x00\x00\x00'
p1832
tp1833
Rp1834
g6
(g10
S'\x87\xb0\x88A'
p1835
tp1836
Rp1837
tp1838
s(g4
I179
tp1839
(g6
(g10
S'\x00\x00\x00\x00'
p1840
tp1841
Rp1842
g6
(g10
S'\xbc\xa3\xe8A'
p1843
tp1844
Rp1845
tp1846
s(g20
I174
tp1847
(g6
(g10
S'\x00\x00\x00\x00'
p1848
tp1849
Rp1850
g6
(g10
S'\xcf\xac-A'
p1851
tp1852
Rp1853
tp1854
s(g4
I84
tp1855
(g6
(g10
S'\x00\x00\x00\x00'
p1856
tp1857
Rp1858
g6
(g10
S'\xc1?\x8bA'
p1859
tp1860
Rp1861
tp1862
s(g4
I173
tp1863
(g6
(g10
S'\x00\x00\x00\x00'
p1864
tp1865
Rp1866
g6
(g10
S'\x86\x93k@'
p1867
tp1868
Rp1869
tp1870
s(g20
I64
tp1871
(g6
(g10
S'\x00\x00\x00\x00'
p1872
tp1873
Rp1874
g6
(g10
S'\xa14nA'
p1875
tp1876
Rp1877
tp1878
s(g4
I78
tp1879
(g6
(g10
S'\x00\x00\x00\x00'
p1880
tp1881
Rp1882
g6
(g10
S'n\xfc\xc1@'
p1883
tp1884
Rp1885
tp1886
s(g4
I199
tp1887
(g6
(g10
S'\x00\x00\x00\x00'
p1888
tp1889
Rp1890
g6
(g10
S'\xdbO\x94A'
p1891
tp1892
Rp1893
tp1894
s(g20
I122
tp1895
(g6
(g10
S'\x00\x00\x00\x00'
p1896
tp1897
Rp1898
g6
(g10
S'\x85JEA'
p1899
tp1900
Rp1901
tp1902
s(g4
I104
tp1903
(g6
(g10
S'\x00\x00\x00\x00'
p1904
tp1905
Rp1906
g6
(g10
S'\x97\xd4\x1cA'
p1907
tp1908
Rp1909
tp1910
s(g20
I28
tp1911
(g6
(g10
S'\x00\x00\x00\x00'
p1912
tp1913
Rp1914
g6
(g10
S'\xbb\x98\x89A'
p1915
tp1916
Rp1917
tp1918
s(g4
I27
tp1919
(g6
(g10
S'\x00\x00\x00\x00'
p1920
tp1921
Rp1922
g6
(g10
S'[\x10\x92A'
p1923
tp1924
Rp1925
tp1926
s(g4
I144
tp1927
(g6
(g10
S'\x00\x00\x00\x00'
p1928
tp1929
Rp1930
g6
(g10
S'KV\x88A'
p1931
tp1932
Rp1933
tp1934
s(g20
I54
tp1935
(g6
(g10
S'\x00\x00\x00\x00'
p1936
tp1937
Rp1938
g6
(g10
S'\xb0\x16\x95A'
p1939
tp1940
Rp1941
tp1942
s(g20
I141
tp1943
(g6
(g10
S'\x00\x00\x00\x00'
p1944
tp1945
Rp1946
g6
(g10
S'\xe5v\x96A'
p1947
tp1948
Rp1949
tp1950
s(g4
I53
tp1951
(g6
(g10
S'\x00\x00\x00\x00'
p1952
tp1953
Rp1954
g6
(g10
S'\xf8>\x06A'
p1955
tp1956
Rp1957
tp1958
s(g4
I138
tp1959
(g6
(g10
S'\x00\x00\x00\x00'
p1960
tp1961
Rp1962
g6
(g10
S'1\x8dUA'
p1963
tp1964
Rp1965
tp1966
s(g20
I40
tp1967
(g6
(g10
S'\x00\x00\x00\x00'
p1968
tp1969
Rp1970
g6
(g10
S'\x01\xec!A'
p1971
tp1972
Rp1973
tp1974
s(g20
I167
tp1975
(g6
(g10
S'\x00\x00\x00\x00'
p1976
tp1977
Rp1978
g6
(g10
S'\xd4\xc2\x0cB'
p1979
tp1980
Rp1981
tp1982
s(g4
I47
tp1983
(g6
(g10
S'\x00\x00\x00\x00'
p1984
tp1985
Rp1986
g6
(g10
S'\xabb\x08@'
p1987
tp1988
Rp1989
tp1990
s(g4
I164
tp1991
(g6
(g10
S'\x00\x00\x00\x00'
p1992
tp1993
Rp1994
g6
(g10
S'}\x00 A'
p1995
tp1996
Rp1997
tp1998
s(g20
I89
tp1999
(g6
(g10
S'\x00\x00\x00\x00'
p2000
tp2001
Rp2002
g6
(g10
S's\xbfIA'
p2003
tp2004
Rp2005
tp2006
s(g4
I73
tp2007
(g6
(g10
S'\x00\x00\x00\x00'
p2008
tp2009
Rp2010
g6
(g10
S'\xda\xaaaA'
p2011
tp2012
Rp2013
tp2014
s(g20
I115
tp2015
(g6
(g10
S'\x00\x00\x00\x00'
p2016
tp2017
Rp2018
g6
(g10
S'\nH\xd2A'
p2019
tp2020
Rp2021
tp2022
s(g4
I99
tp2023
(g6
(g10
S'\x00\x00\x00\x00'
p2024
tp2025
Rp2026
g6
(g10
S' C\xdc@'
p2027
tp2028
Rp2029
tp2030
s(g20
I21
tp2031
(g6
(g10
S'\x00\x00\x00\x00'
p2032
tp2033
Rp2034
g6
(g10
S'\x16\xba\x92A'
p2035
tp2036
Rp2037
tp2038
s(g4
I18
tp2039
(g6
(g10
S'\x00\x00\x00\x00'
p2040
tp2041
Rp2042
g6
(g10
S'8\x941@'
p2043
tp2044
Rp2045
tp2046
s(g20
I15
tp2047
(g6
(g10
S'\x00\x00\x00\x00'
p2048
tp2049
Rp2050
g6
(g10
S'\x868\xb9A'
p2051
tp2052
Rp2053
tp2054
s(g20
I134
tp2055
(g6
(g10
S'\x00\x00\x00\x00'
p2056
tp2057
Rp2058
g6
(g10
S'\x11\xd0PA'
p2059
tp2060
Rp2061
tp2062
s(g4
I12
tp2063
(g6
(g10
S'\x00\x00\x00\x00'
p2064
tp2065
Rp2066
g6
(g10
S'\xac\xdb*A'
p2067
tp2068
Rp2069
tp2070
s(g4
I133
tp2071
(g6
(g10
S'\x00\x00\x00\x00'
p2072
tp2073
Rp2074
g6
(g10
S'"\xa9\x05@'
p2075
tp2076
Rp2077
tp2078
s(g20
I33
tp2079
(g6
(g10
S'\x00\x00\x00\x00'
p2080
tp2081
Rp2082
g6
(g10
S'\xf6f\xadA'
p2083
tp2084
Rp2085
tp2086
s(g20
I184
tp2087
(g6
(g10
S'\x00\x00\x00\x00'
p2088
tp2089
Rp2090
g6
(g10
S'I\x99\xb2A'
p2091
tp2092
Rp2093
tp2094
s(g4
I38
tp2095
(g6
(g10
S'\x00\x00\x00\x00'
p2096
tp2097
Rp2098
g6
(g10
S'<\xa3\xbdA'
p2099
tp2100
Rp2101
tp2102
s(g4
I191
tp2103
(g6
(g10
S'\x00\x00\x00\x00'
p2104
tp2105
Rp2106
g6
(g10
S'\x9a<\xbdA'
p2107
tp2108
Rp2109
tp2110
s(g20
I82
tp2111
(g6
(g10
S'\x00\x00\x00\x00'
p2112
tp2113
Rp2114
g6
(g10
S'\xff@\x92A'
p2115
tp2116
Rp2117
tp2118
s(g4
I64
tp2119
(g6
(g10
S'\x00\x00\x00\x00'
p2120
tp2121
Rp2122
g6
(g10
S'\x8b@\x94A'
p2123
tp2124
Rp2125
tp2126
s(g20
I116
tp2127
(g6
(g10
S'\x00\x00\x00\x00'
p2128
tp2129
Rp2130
g6
(g10
S'{k\x8eA'
p2131
tp2132
Rp2133
tp2134
s(g4
I122
tp2135
(g6
(g10
S'\x00\x00\x00\x00'
p2136
tp2137
Rp2138
g6
(g10
S'\x801"A'
p2139
tp2140
Rp2141
tp2142
s(g20
I195
tp2143
(g6
(g10
S'\x00\x00\x00\x00'
p2144
tp2145
Rp2146
g6
(g10
S'\x13GfA'
p2147
tp2148
Rp2149
tp2150
s(g20
I110
tp2151
(g6
(g10
S'\x00\x00\x00\x00'
p2152
tp2153
Rp2154
g6
(g10
S'{\x0e\x85A'
p2155
tp2156
Rp2157
tp2158
s(g20
I0
tp2159
(g6
(g10
S'\x00\x00\x00\x00'
p2160
tp2161
Rp2162
g6
(g10
S'\xfe[lA'
p2163
tp2164
Rp2165
tp2166
s(g20
I159
tp2167
(g6
(g10
S'\x00\x00\x00\x00'
p2168
tp2169
Rp2170
g6
(g10
S'\x9b\xa7\xc0A'
p2171
tp2172
Rp2173
tp2174
s(g4
I7
tp2175
(g6
(g10
S'\x00\x00\x00\x00'
p2176
tp2177
Rp2178
g6
(g10
S'o\xfe~A'
p2179
tp2180
Rp2181
tp2182
s(g4
I156
tp2183
(g6
(g10
S'\x00\x00\x00\x00'
p2184
tp2185
Rp2186
g6
(g10
S'\x10>{@'
p2187
tp2188
Rp2189
tp2190
s(g20
I58
tp2191
(g6
(g10
S'\x00\x00\x00\x00'
p2192
tp2193
Rp2194
g6
(g10
S'\xc0>@A'
p2195
tp2196
Rp2197
tp2198
s(g20
I177
tp2199
(g6
(g10
S'\x00\x00\x00\x00'
p2200
tp2201
Rp2202
g6
(g10
S'\xd8^aA'
p2203
tp2204
Rp2205
tp2206
s(g4
I33
tp2207
(g6
(g10
S'\x00\x00\x00\x00'
p2208
tp2209
Rp2210
g6
(g10
S'r\x04\xdfA'
p2211
tp2212
Rp2213
tp2214
s(g4
I182
tp2215
(g6
(g10
S'\x00\x00\x00\x00'
p2216
tp2217
Rp2218
g6
(g10
S'\xdd\xcf\x03B'
p2219
tp2220
Rp2221
tp2222
s(g20
I171
tp2223
(g6
(g10
S'\x00\x00\x00\x00'
p2224
tp2225
Rp2226
g6
(g10
S'\x16\xdb`A'
p2227
tp2228
Rp2229
tp2230
s(g4
I91
tp2231
(g6
(g10
S'\x00\x00\x00\x00'
p2232
tp2233
Rp2234
g6
(g10
S'\x9d\x83\xf7A'
p2235
tp2236
Rp2237
tp2238
s(g20
I77
tp2239
(g6
(g10
S'\x00\x00\x00\x00'
p2240
tp2241
Rp2242
g6
(g10
S'O{\x8bA'
p2243
tp2244
Rp2245
tp2246
s(g4
I117
tp2247
(g6
(g10
S'\x00\x00\x00\x00'
p2248
tp2249
Rp2250
g6
(g10
S'_:\x82A'
p2251
tp2252
Rp2253
tp2254
s(g20
I196
tp2255
(g6
(g10
S'\x00\x00\x00\x00'
p2256
tp2257
Rp2258
g6
(g10
S'\xb4W\x10B'
p2259
tp2260
Rp2261
tp2262
s(g20
I103
tp2263
(g6
(g10
S'\x00\x00\x00\x00'
p2264
tp2265
Rp2266
g6
(g10
S'y\xde@A'
p2267
tp2268
Rp2269
tp2270
s(g4
I111
tp2271
(g6
(g10
S'\x00\x00\x00\x00'
p2272
tp2273
Rp2274
g6
(g10
S':u\x05A'
p2275
tp2276
Rp2277
tp2278
s(g20
I25
tp2279
(g6
(g10
S'\x00\x00\x00\x00'
p2280
tp2281
Rp2282
g6
(g10
S'\xf9\xa7\x89A'
p2283
tp2284
Rp2285
tp2286
s(g20
I144
tp2287
(g6
(g10
S'\x00\x00\x00\x00'
p2288
tp2289
Rp2290
g6
(g10
S'c\xb6-A'
p2291
tp2292
Rp2293
tp2294
s(g4
I30
tp2295
(g6
(g10
S'\x00\x00\x00\x00'
p2296
tp2297
Rp2298
g6
(g10
S'\xd6\x08\x04A'
p2299
tp2300
Rp2301
tp2302
s(g4
I151
tp2303
(g6
(g10
S'\x00\x00\x00\x00'
p2304
tp2305
Rp2306
g6
(g10
S'\xa9\xebMA'
p2307
tp2308
Rp2309
tp2310
s(g20
I51
tp2311
(g6
(g10
S'\x00\x00\x00\x00'
p2312
tp2313
Rp2314
g6
(g10
S'\xd9\xcc<A'
p2315
tp2316
Rp2317
tp2318
s(g20
I138
tp2319
(g6
(g10
S'\x00\x00\x00\x00'
p2320
tp2321
Rp2322
g6
(g10
S'c9\xa6A'
p2323
tp2324
Rp2325
tp2326
s(g4
I56
tp2327
(g6
(g10
S'\x00\x00\x00\x00'
p2328
tp2329
Rp2330
g6
(g10
S'M*\x84A'
p2331
tp2332
Rp2333
tp2334
s(g4
I177
tp2335
(g6
(g10
S'\x00\x00\x00\x00'
p2336
tp2337
Rp2338
g6
(g10
S'v\x97\x90A'
p2339
tp2340
Rp2341
tp2342
s(g20
I172
tp2343
(g6
(g10
S'\x00\x00\x00\x00'
p2344
tp2345
Rp2346
g6
(g10
S'e\x8afA'
p2347
tp2348
Rp2349
tp2350
s(g4
I82
tp2351
(g6
(g10
S'\x00\x00\x00\x00'
p2352
tp2353
Rp2354
g6
(g10
S'P\x93@A'
p2355
tp2356
Rp2357
tp2358
s(g4
I171
tp2359
(g6
(g10
S'\x00\x00\x00\x00'
p2360
tp2361
Rp2362
g6
(g10
S'\x1a=3A'
p2363
tp2364
Rp2365
tp2366
s(g20
I70
tp2367
(g6
(g10
S'\x00\x00\x00\x00'
p2368
tp2369
Rp2370
g6
(g10
S'\xc9\xbauA'
p2371
tp2372
Rp2373
tp2374
s(g4
I76
tp2375
(g6
(g10
S'\x00\x00\x00\x00'
p2376
tp2377
Rp2378
g6
(g10
S'\xc4\xc6\xabA'
p2379
tp2380
Rp2381
tp2382
s(g4
I197
tp2383
(g6
(g10
S'\x00\x00\x00\x00'
p2384
tp2385
Rp2386
g6
(g10
S'\x00Q\xd2@'
p2387
tp2388
Rp2389
tp2390
s(g20
I120
tp2391
(g6
(g10
S'\x00\x00\x00\x00'
p2392
tp2393
Rp2394
g6
(g10
S'\xdd\xdb\x90A'
p2395
tp2396
Rp2397
tp2398
s(g4
I102
tp2399
(g6
(g10
S'\x00\x00\x00\x00'
p2400
tp2401
Rp2402
g6
(g10
S'\xc2rDA'
p2403
tp2404
Rp2405
tp2406
s(g20
I18
tp2407
(g6
(g10
S'\x00\x00\x00\x00'
p2408
tp2409
Rp2410
g6
(g10
S'J\x89>A'
p2411
tp2412
Rp2413
tp2414
s(g4
I25
tp2415
(g6
(g10
S'\x00\x00\x00\x00'
p2416
tp2417
Rp2418
g6
(g10
S'{\xdd\xbb<'
p2419
tp2420
Rp2421
tp2422
s(g20
I52
tp2423
(g6
(g10
S'\x00\x00\x00\x00'
p2424
tp2425
Rp2426
g6
(g10
S'YL;A'
p2427
tp2428
Rp2429
tp2430
s(g20
I131
tp2431
(g6
(g10
S'\x00\x00\x00\x00'
p2432
tp2433
Rp2434
g6
(g10
S'\xad\x01SA'
p2435
tp2436
Rp2437
tp2438
s(g4
I51
tp2439
(g6
(g10
S'\x00\x00\x00\x00'
p2440
tp2441
Rp2442
g6
(g10
S'\x83\xc8\x19A'
p2443
tp2444
Rp2445
tp2446
s(g4
I136
tp2447
(g6
(g10
S'\x00\x00\x00\x00'
p2448
tp2449
Rp2450
g6
(g10
S']\x90\x98A'
p2451
tp2452
Rp2453
tp2454
s(g20
I46
tp2455
(g6
(g10
S'\x00\x00\x00\x00'
p2456
tp2457
Rp2458
g6
(g10
S'PuEA'
p2459
tp2460
Rp2461
tp2462
s(g20
I165
tp2463
(g6
(g10
S'\x00\x00\x00\x00'
p2464
tp2465
Rp2466
g6
(g10
S'\xd2\x04\x81A'
p2467
tp2468
Rp2469
tp2470
s(g4
I45
tp2471
(g6
(g10
S'\x00\x00\x00\x00'
p2472
tp2473
Rp2474
g6
(g10
S'C\xee\xe6@'
p2475
tp2476
Rp2477
tp2478
s(g4
I162
tp2479
(g6
(g10
S'\x00\x00\x00\x00'
p2480
tp2481
Rp2482
g6
(g10
S'7\xfaT?'
p2483
tp2484
Rp2485
tp2486
s(g20
I95
tp2487
(g6
(g10
S'\x00\x00\x00\x00'
p2488
tp2489
Rp2490
g6
(g10
S'U\xaa\x8bA'
p2491
tp2492
Rp2493
tp2494
s(g4
I71
tp2495
(g6
(g10
S'\x00\x00\x00\x00'
p2496
tp2497
Rp2498
g6
(g10
S'\xadGDA'
p2499
tp2500
Rp2501
tp2502
s(g20
I113
tp2503
(g6
(g10
S'\x00\x00\x00\x00'
p2504
tp2505
Rp2506
g6
(g10
S'b\xd5PA'
p2507
tp2508
Rp2509
tp2510
s(g4
I97
tp2511
(g6
(g10
S'\x00\x00\x00\x00'
p2512
tp2513
Rp2514
g6
(g10
S'=r\xccA'
p2515
tp2516
Rp2517
tp2518
s(g20
I107
tp2519
(g6
(g10
S'\x00\x00\x00\x00'
p2520
tp2521
Rp2522
g6
(g10
S'\xfaENA'
p2523
tp2524
Rp2525
tp2526
s(g4
I16
tp2527
(g6
(g10
S'\x00\x00\x00\x00'
p2528
tp2529
Rp2530
g6
(g10
S'\xc3\xbb\x17A'
p2531
tp2532
Rp2533
tp2534
s(g20
I13
tp2535
(g6
(g10
S'\x00\x00\x00\x00'
p2536
tp2537
Rp2538
g6
(g10
S'\xf5 rA'
p2539
tp2540
Rp2541
tp2542
s(g20
I132
tp2543
(g6
(g10
S'\x00\x00\x00\x00'
p2544
tp2545
Rp2546
g6
(g10
S'\xf6QlA'
p2547
tp2548
Rp2549
tp2550
s(g4
I10
tp2551
(g6
(g10
S'\x00\x00\x00\x00'
p2552
tp2553
Rp2554
g6
(g10
S'\x9d\xa7\x1dB'
p2555
tp2556
Rp2557
tp2558
s(g4
I131
tp2559
(g6
(g10
S'\x00\x00\x00\x00'
p2560
tp2561
Rp2562
g6
(g10
S'\xcc9\x8aA'
p2563
tp2564
Rp2565
tp2566
s(g20
I39
tp2567
(g6
(g10
S'\x00\x00\x00\x00'
p2568
tp2569
Rp2570
g6
(g10
S'uW\x16A'
p2571
tp2572
Rp2573
tp2574
s(g20
I190
tp2575
(g6
(g10
S'\x00\x00\x00\x00'
p2576
tp2577
Rp2578
g6
(g10
S'\x1a\x98\xc4A'
p2579
tp2580
Rp2581
tp2582
s(g4
I36
tp2583
(g6
(g10
S'\x00\x00\x00\x00'
p2584
tp2585
Rp2586
g6
(g10
S'z&\x86A'
p2587
tp2588
Rp2589
tp2590
s(g4
I189
tp2591
(g6
(g10
S'\x00\x00\x00\x00'
p2592
tp2593
Rp2594
g6
(g10
S'\x1b\x9btA'
p2595
tp2596
Rp2597
tp2598
s(g20
I80
tp2599
(g6
(g10
S'\x00\x00\x00\x00'
p2600
tp2601
Rp2602
g6
(g10
S'\x922\xa4A'
p2603
tp2604
Rp2605
tp2606
s(g4
I94
tp2607
(g6
(g10
S'\x00\x00\x00\x00'
p2608
tp2609
Rp2610
g6
(g10
S'\x16/\x1cA'
p2611
tp2612
Rp2613
tp2614
s(g20
I74
tp2615
(g6
(g10
S'\x00\x00\x00\x00'
p2616
tp2617
Rp2618
g6
(g10
S'!\xa3zA'
p2619
tp2620
Rp2621
tp2622
s(g4
I120
tp2623
(g6
(g10
S'\x00\x00\x00\x00'
p2624
tp2625
Rp2626
g6
(g10
S'i\xdb9A'
p2627
tp2628
Rp2629
tp2630
s(g20
I193
tp2631
(g6
(g10
S'\x00\x00\x00\x00'
p2632
tp2633
Rp2634
g6
(g10
S'\xb1\xc8!A'
p2635
tp2636
Rp2637
tp2638
s(g20
I108
tp2639
(g6
(g10
S'\x00\x00\x00\x00'
p2640
tp2641
Rp2642
g6
(g10
S'\x01\xe0\x83A'
p2643
tp2644
Rp2645
tp2646
s(g20
I6
tp2647
(g6
(g10
S'\x00\x00\x00\x00'
p2648
tp2649
Rp2650
g6
(g10
S'^Q\x8dA'
p2651
tp2652
Rp2653
tp2654
s(g20
I157
tp2655
(g6
(g10
S'\x00\x00\x00\x00'
p2656
tp2657
Rp2658
g6
(g10
S'\x7fDnA'
p2659
tp2660
Rp2661
tp2662
s(g4
I5
tp2663
(g6
(g10
S'\x00\x00\x00\x00'
p2664
tp2665
Rp2666
g6
(g10
S'o\x8b\x02A'
p2667
tp2668
Rp2669
tp2670
s(g4
I154
tp2671
(g6
(g10
S'\x00\x00\x00\x00'
p2672
tp2673
Rp2674
g6
(g10
S'%\x80|A'
p2675
tp2676
Rp2677
tp2678
s(g20
I56
tp2679
(g6
(g10
S'\x00\x00\x00\x00'
p2680
tp2681
Rp2682
g6
(g10
S'\xa0<$A'
p2683
tp2684
Rp2685
tp2686
s(g20
I183
tp2687
(g6
(g10
S'\x00\x00\x00\x00'
p2688
tp2689
Rp2690
g6
(g10
S'\xe5T\x89A'
p2691
tp2692
Rp2693
tp2694
s(g4
I63
tp2695
(g6
(g10
S'\x00\x00\x00\x00'
p2696
tp2697
Rp2698
g6
(g10
S'\x11\x81}A'
p2699
tp2700
Rp2701
tp2702
s(g4
I180
tp2703
(g6
(g10
S'\x00\x00\x00\x00'
p2704
tp2705
Rp2706
g6
(g10
S'\xd5\xddpA'
p2707
tp2708
Rp2709
tp2710
s(g20
I169
tp2711
(g6
(g10
S'\x00\x00\x00\x00'
p2712
tp2713
Rp2714
g6
(g10
S'\xf5i\x8aA'
p2715
tp2716
Rp2717
tp2718
s(g4
I89
tp2719
(g6
(g10
S'\x00\x00\x00\x00'
p2720
tp2721
Rp2722
g6
(g10
S'\xc4\xe3wA'
p2723
tp2724
Rp2725
tp2726
s(g4
I174
tp2727
(g6
(g10
S'\x00\x00\x00\x00'
p2728
tp2729
Rp2730
g6
(g10
S'\x92\x93\xe2@'
p2731
tp2732
Rp2733
tp2734
s(g20
I67
tp2735
(g6
(g10
S'\x00\x00\x00\x00'
p2736
tp2737
Rp2738
g6
(g10
S'o<\xd5A'
p2739
tp2740
Rp2741
tp2742
s(g4
I115
tp2743
(g6
(g10
S'\x00\x00\x00\x00'
p2744
tp2745
Rp2746
g6
(g10
S'\x80\x9e\x1cA'
p2747
tp2748
Rp2749
tp2750
s(g20
I101
tp2751
(g6
(g10
S'\x00\x00\x00\x00'
p2752
tp2753
Rp2754
g6
(g10
S'p\xd2\x90A'
p2755
tp2756
Rp2757
tp2758
s(g4
I109
tp2759
(g6
(g10
S'\x00\x00\x00\x00'
p2760
tp2761
Rp2762
g6
(g10
S'\xfa\xa6\x1eA'
p2763
tp2764
Rp2765
tp2766
s(g20
I31
tp2767
(g6
(g10
S'\x00\x00\x00\x00'
p2768
tp2769
Rp2770
g6
(g10
S'\xb6\x80|A'
p2771
tp2772
Rp2773
tp2774
s(g20
I150
tp2775
(g6
(g10
S'\x00\x00\x00\x00'
p2776
tp2777
Rp2778
g6
(g10
S'\xbf\xb6\xdaA'
p2779
tp2780
Rp2781
tp2782
s(g4
I28
tp2783
(g6
(g10
S'\x00\x00\x00\x00'
p2784
tp2785
Rp2786
g6
(g10
S'\x99\x92iA'
p2787
tp2788
Rp2789
tp2790
s(g4
I149
tp2791
(g6
(g10
S'\x00\x00\x00\x00'
p2792
tp2793
Rp2794
g6
(g10
S'\x05m\xdb@'
p2795
tp2796
Rp2797
tp2798
s(g20
I49
tp2799
(g6
(g10
S'\x00\x00\x00\x00'
p2800
tp2801
Rp2802
g6
(g10
S'\x14 \x84A'
p2803
tp2804
Rp2805
tp2806
s(g20
I136
tp2807
(g6
(g10
S'\x00\x00\x00\x00'
p2808
tp2809
Rp2810
g6
(g10
S'\x1b$\x90A'
p2811
tp2812
Rp2813
tp2814
s(g4
I54
tp2815
(g6
(g10
S'\x00\x00\x00\x00'
p2816
tp2817
Rp2818
g6
(g10
S'\xcd\x99[A'
p2819
tp2820
Rp2821
tp2822
s(g4
I143
tp2823
(g6
(g10
S'\x00\x00\x00\x00'
p2824
tp2825
Rp2826
g6
(g10
S'\\\xf3\xabA'
p2827
tp2828
Rp2829
tp2830
s(g20
I43
tp2831
(g6
(g10
S'\x00\x00\x00\x00'
p2832
tp2833
Rp2834
g6
(g10
S'\xd2\xf4)A'
p2835
tp2836
Rp2837
tp2838
s(g20
I162
tp2839
(g6
(g10
S'\x00\x00\x00\x00'
p2840
tp2841
Rp2842
g6
(g10
S'.\x08\x0bA'
p2843
tp2844
Rp2845
tp2846
s(g4
I80
tp2847
(g6
(g10
S'\x00\x00\x00\x00'
p2848
tp2849
Rp2850
g6
(g10
S'\xa2\x9d2A'
p2851
tp2852
Rp2853
tp2854
s(g4
I169
tp2855
(g6
(g10
S'\x00\x00\x00\x00'
p2856
tp2857
Rp2858
g6
(g10
S'\x03\xb6DA'
p2859
tp2860
Rp2861
tp2862
s(g20
I68
tp2863
(g6
(g10
S'\x00\x00\x00\x00'
p2864
tp2865
Rp2866
g6
(g10
S'V\xb5\x93A'
p2867
tp2868
Rp2869
tp2870
s(g4
I74
tp2871
(g6
(g10
S'\x00\x00\x00\x00'
p2872
tp2873
Rp2874
g6
(g10
S'\xa6\x99\x17A'
p2875
tp2876
Rp2877
tp2878
s(g4
I195
tp2879
(g6
(g10
S'\x00\x00\x00\x00'
p2880
tp2881
Rp2882
g6
(g10
S'\xde\x08=A'
p2883
tp2884
Rp2885
tp2886
s(g20
I126
tp2887
(g6
(g10
S'\x00\x00\x00\x00'
p2888
tp2889
Rp2890
g6
(g10
S'\xc8U\x89A'
p2891
tp2892
Rp2893
tp2894
s(g4
I100
tp2895
(g6
(g10
S'\x00\x00\x00\x00'
p2896
tp2897
Rp2898
g6
(g10
S'\xb6\x1e\xa8A'
p2899
tp2900
Rp2901
tp2902
s(g20
I16
tp2903
(g6
(g10
S'\x00\x00\x00\x00'
p2904
tp2905
Rp2906
g6
(g10
S'`#\x87A'
p2907
tp2908
Rp2909
tp2910
s(g4
I23
tp2911
(g6
(g10
S'\x00\x00\x00\x00'
p2912
tp2913
Rp2914
g6
(g10
S'\xf8\x84\x91A'
p2915
tp2916
Rp2917
tp2918
s(g20
I10
tp2919
(g6
(g10
S'\x00\x00\x00\x00'
p2920
tp2921
Rp2922
g6
(g10
S'\x98\x83SA'
p2923
tp2924
Rp2925
tp2926
s(g20
I129
tp2927
(g6
(g10
S'\x00\x00\x00\x00'
p2928
tp2929
Rp2930
g6
(g10
S'\x10\xb1\x8bA'
p2931
tp2932
Rp2933
tp2934
s(g4
I49
tp2935
(g6
(g10
S'\x00\x00\x00\x00'
p2936
tp2937
Rp2938
g6
(g10
S'\x88#=A'
p2939
tp2940
Rp2941
tp2942
s(g4
I134
tp2943
(g6
(g10
S'\x00\x00\x00\x00'
p2944
tp2945
Rp2946
g6
(g10
S'st\xc6@'
p2947
tp2948
Rp2949
tp2950
s(g20
I44
tp2951
(g6
(g10
S'\x00\x00\x00\x00'
p2952
tp2953
Rp2954
g6
(g10
S'93/A'
p2955
tp2956
Rp2957
tp2958
s(g20
I187
tp2959
(g6
(g10
S'\x00\x00\x00\x00'
p2960
tp2961
Rp2962
g6
(g10
S'#\x80\xceA'
p2963
tp2964
Rp2965
tp2966
s(g4
I43
tp2967
(g6
(g10
S'\x00\x00\x00\x00'
p2968
tp2969
Rp2970
g6
(g10
S'\xb6\xc0\x1fA'
p2971
tp2972
Rp2973
tp2974
s(g4
I160
tp2975
(g6
(g10
S'\x00\x00\x00\x00'
p2976
tp2977
Rp2978
g6
(g10
S'\x8d\xb3\tA'
p2979
tp2980
Rp2981
tp2982
s(g20
I93
tp2983
(g6
(g10
S'\x00\x00\x00\x00'
p2984
tp2985
Rp2986
g6
(g10
S'.\xb6=A'
p2987
tp2988
Rp2989
tp2990
s(g4
I69
tp2991
(g6
(g10
S'\x00\x00\x00\x00'
p2992
tp2993
Rp2994
g6
(g10
S'\x9b\xc6\x99A'
p2995
tp2996
Rp2997
tp2998
s(g20
I119
tp2999
(g6
(g10
S'\x00\x00\x00\x00'
p3000
tp3001
Rp3002
g6
(g10
S'=\xad-A'
p3003
tp3004
Rp3005
tp3006
s(g4
I127
tp3007
(g6
(g10
S'\x00\x00\x00\x00'
p3008
tp3009
Rp3010
g6
(g10
S'\xd9R\xb0@'
p3011
tp3012
Rp3013
tp3014
s(g20
I105
tp3015
(g6
(g10
S'\x00\x00\x00\x00'
p3016
tp3017
Rp3018
g6
(g10
S'~\x01\x9eA'
p3019
tp3020
Rp3021
tp3022
s(g20
I3
tp3023
(g6
(g10
S'\x00\x00\x00\x00'
p3024
tp3025
Rp3026
g6
(g10
S'w\x89,A'
p3027
tp3028
Rp3029
tp3030
s(g20
I154
tp3031
(g6
(g10
S'\x00\x00\x00\x00'
p3032
tp3033
Rp3034
g6
(g10
S'\x8dT&A'
p3035
tp3036
Rp3037
tp3038
s(g4
I8
tp3039
(g6
(g10
S'\x00\x00\x00\x00'
p3040
tp3041
Rp3042
g6
(g10
S'Z\xbe\xcc@'
p3043
tp3044
Rp3045
tp3046
s(g4
I129
tp3047
(g6
(g10
S'\x00\x00\x00\x00'
p3048
tp3049
Rp3050
g6
(g10
S'\x80\x81RA'
p3051
tp3052
Rp3053
tp3054
s(g20
I37
tp3055
(g6
(g10
S'\x00\x00\x00\x00'
p3056
tp3057
Rp3058
g6
(g10
S'~-eA'
p3059
tp3060
Rp3061
tp3062
s(g20
I188
tp3063
(g6
(g10
S'\x00\x00\x00\x00'
p3064
tp3065
Rp3066
g6
(g10
S"3'\xbdA"
p3067
tp3068
Rp3069
tp3070
s(g4
I34
tp3071
(g6
(g10
S'\x00\x00\x00\x00'
p3072
tp3073
Rp3074
g6
(g10
S'g&nA'
p3075
tp3076
Rp3077
tp3078
s(g4
I187
tp3079
(g6
(g10
S'\x00\x00\x00\x00'
p3080
tp3081
Rp3082
g6
(g10
S'x\x19!A'
p3083
tp3084
Rp3085
tp3086
s(g1230
I1
tp3087
(g6
(g10
S'?/\xd6\xc2'
p3088
tp3089
Rp3090
g6
(g10
S'\xa8\xe3\x0eB'
p3091
tp3092
Rp3093
tp3094
s(g20
I86
tp3095
(g6
(g10
S'\x00\x00\x00\x00'
p3096
tp3097
Rp3098
g6
(g10
S'\xe2JyA'
p3099
tp3100
Rp3101
tp3102
s(g4
I92
tp3103
(g6
(g10
S'\x00\x00\x00\x00'
p3104
tp3105
Rp3106
g6
(g10
S'\\WWA'
p3107
tp3108
Rp3109
tp3110
s(g20
I72
tp3111
(g6
(g10
S'\x00\x00\x00\x00'
p3112
tp3113
Rp3114
g6
(g10
S'\xe9\xb0\\A'
p3115
tp3116
Rp3117
tp3118
s(g4
I118
tp3119
(g6
(g10
S'\x00\x00\x00\x00'
p3120
tp3121
Rp3122
g6
(g10
S'\x92/_A'
p3123
tp3124
Rp3125
tp3126
s(g20
I199
tp3127
(g6
(g10
S'\x00\x00\x00\x00'
p3128
tp3129
Rp3130
g6
(g10
S'z\xda\xcaA'
p3131
tp3132
Rp3133
tp3134
s(g20
I98
tp3135
(g6
(g10
S'\x00\x00\x00\x00'
p3136
tp3137
Rp3138
g6
(g10
S'\xf8%\xd4A'
p3139
tp3140
Rp3141
tp3142
s(g20
I4
tp3143
(g6
(g10
S'\x00\x00\x00\x00'
p3144
tp3145
Rp3146
g6
(g10
S';f\xe2A'
p3147
tp3148
Rp3149
tp3150
s(g20
I147
tp3151
(g6
(g10
S'\x00\x00\x00\x00'
p3152
tp3153
Rp3154
g6
(g10
S'\x8c]\xc2A'
p3155
tp3156
Rp3157
tp3158
s(g4
I3
tp3159
(g6
(g10
S'\x00\x00\x00\x00'
p3160
tp3161
Rp3162
g6
(g10
S'7v\xecA'
p3163
tp3164
Rp3165
tp3166
s(g4
I152
tp3167
(g6
(g10
S'\x00\x00\x00\x00'
p3168
tp3169
Rp3170
g6
(g10
S'\x0b\xad\x0e@'
p3171
tp3172
Rp3173
tp3174
s(g20
I62
tp3175
(g6
(g10
S'\x00\x00\x00\x00'
p3176
tp3177
Rp3178
g6
(g10
S'.\x96\x82A'
p3179
tp3180
Rp3181
tp3182
s(g20
I181
tp3183
(g6
(g10
S'\x00\x00\x00\x00'
p3184
tp3185
Rp3186
g6
(g10
S'@\x94\xd4A'
p3187
tp3188
Rp3189
tp3190
s(g4
I61
tp3191
(g6
(g10
S'\x00\x00\x00\x00'
p3192
tp3193
Rp3194
g6
(g10
S'z\x0e\x16A'
p3195
tp3196
Rp3197
tp3198
s(g4
I178
tp3199
(g6
(g10
S'\x00\x00\x00\x00'
p3200
tp3201
Rp3202
g6
(g10
S'\xe6U!@'
p3203
tp3204
Rp3205
tp3206
s(g20
I175
tp3207
(g6
(g10
S'\x00\x00\x00\x00'
p3208
tp3209
Rp3210
g6
(g10
S'\xda\xc0_A'
p3211
tp3212
Rp3213
tp3214
s(g4
I87
tp3215
(g6
(g10
S'\x00\x00\x00\x00'
p3216
tp3217
Rp3218
g6
(g10
S'\x138\xaf>'
p3219
tp3220
Rp3221
tp3222
s(g4
I172
tp3223
(g6
(g10
S'\x00\x00\x00\x00'
p3224
tp3225
Rp3226
g6
(g10
S'yH\x99A'
p3227
tp3228
Rp3229
tp3230
s(g20
I65
tp3231
(g6
(g10
S'\x00\x00\x00\x00'
p3232
tp3233
Rp3234
g6
(g10
S'"z\xa6A'
p3235
tp3236
Rp3237
tp3238
s(g4
I113
tp3239
(g6
(g10
S'\x00\x00\x00\x00'
p3240
tp3241
Rp3242
g6
(g10
S'CI%A'
p3243
tp3244
Rp3245
tp3246
s.