ccollections
defaultdict
p0
(c__builtin__
bool
p1
tp2
Rp3
(S'fc2'
p4
I198
tp5
(cnumpy.core.multiarray
scalar
p6
(cnumpy
dtype
p7
(S'f4'
p8
I0
I1
tp9
Rp10
(I3
S'<'
p11
NNNI-1
I-1
I0
tp12
bS'\x00\x00\x00\x00'
p13
tp14
Rp15
g6
(g10
S'\xe9\xdabA'
p16
tp17
Rp18
tp19
s(S'fc3'
p20
I87
tp21
(g6
(g10
S'\x00\x00\x00\x00'
p22
tp23
Rp24
g6
(g10
S'7\xee`A'
p25
tp26
Rp27
tp28
s(S'fc1'
p29
I123
tp30
(g6
(g10
S'\x00\x00\x00\x00'
p31
tp32
Rp33
g6
(g10
S"'C\x87A"
p34
tp35
Rp36
tp37
s(g4
I107
tp38
(g6
(g10
S'\x00\x00\x00\x00'
p39
tp40
Rp41
g6
(g10
S'\xcc/\tA'
p42
tp43
Rp44
tp45
s(g20
I125
tp46
(g6
(g10
S'\x00\x00\x00\x00'
p47
tp48
Rp49
g6
(g10
S'\xcc\x0eaA'
p50
tp51
Rp52
tp53
s(g29
I29
tp54
(g6
(g10
S'\x00\x00\x00\x00'
p55
tp56
Rp57
g6
(g10
S'\xcc\x0euA'
p58
tp59
Rp60
tp61
s(g29
I148
tp62
(g6
(g10
S'\x00\x00\x00\x00'
p63
tp64
Rp65
g6
(g10
S'\xa5\x82\x01B'
p66
tp67
Rp68
tp69
s(g4
I26
tp70
(g6
(g10
S'\x00\x00\x00\x00'
p71
tp72
Rp73
g6
(g10
S'\xb2\x0e\x90A'
p74
tp75
Rp76
tp77
s(g20
I152
tp78
(g6
(g10
S'\x00\x00\x00\x00'
p79
tp80
Rp81
g6
(g10
S'\x10\xbc`A'
p82
tp83
Rp84
tp85
s(g4
I147
tp86
(g6
(g10
S'\x00\x00\x00\x00'
p87
tp88
Rp89
g6
(g10
S'\xa9S\x83A'
p90
tp91
Rp92
tp93
s(g20
I3
tp94
(g6
(g10
S'\x00\x00\x00\x00'
p95
tp96
Rp97
g6
(g10
S'\xa2X\xa5@'
p98
tp99
Rp100
tp101
s(g29
I55
tp102
(g6
(g10
S'\x00\x00\x00\x00'
p103
tp104
Rp105
g6
(g10
S'\xef\xd2\x96A'
p106
tp107
Rp108
tp109
s(g29
I142
tp110
(g6
(g10
S'\x00\x00\x00\x00'
p111
tp112
Rp113
g6
(g10
S'g\x98tA'
p114
tp115
Rp116
tp117
s(g4
I52
tp118
(g6
(g10
S'\x00\x00\x00\x00'
p119
tp120
Rp121
g6
(g10
S'\xb6\xd0\x83@'
p122
tp123
Rp124
tp125
s(g20
I190
tp126
(g6
(g10
S'\x00\x00\x00\x00'
p127
tp128
Rp129
g6
(g10
S'rN\xae@'
p130
tp131
Rp132
tp133
s(g4
I141
tp134
(g6
(g10
S'\x00\x00\x00\x00'
p135
tp136
Rp137
g6
(g10
S'9\xf1\x18A'
p138
tp139
Rp140
tp141
s(g20
I41
tp142
(g6
(g10
S'\x00\x00\x00\x00'
p143
tp144
Rp145
g6
(g10
S'y\x1d\x90A'
p146
tp147
Rp148
tp149
s(g29
I41
tp150
(g6
(g10
S'\x00\x00\x00\x00'
p151
tp152
Rp153
g6
(g10
S'f~TA'
p154
tp155
Rp156
tp157
s(g29
I160
tp158
(g6
(g10
S'\x00\x00\x00\x00'
p159
tp160
Rp161
g6
(g10
S'\tt\xa3A'
p162
tp163
Rp164
tp165
s(g4
I46
tp166
(g6
(g10
S'\x00\x00\x00\x00'
p167
tp168
Rp169
g6
(g10
S's\xa6S@'
p170
tp171
Rp172
tp173
s(g4
I167
tp174
(g6
(g10
S'\x00\x00\x00\x00'
p175
tp176
Rp177
g6
(g10
S'\x0c\xdc\xa0A'
p178
tp179
Rp180
tp181
s(g29
I90
tp182
(g6
(g10
S'\x00\x00\x00\x00'
p183
tp184
Rp185
g6
(g10
S'%\xaciA'
p186
tp187
Rp188
tp189
s(g4
I72
tp190
(g6
(g10
S'\x00\x00\x00\x00'
p191
tp192
Rp193
g6
(g10
S'\xaea\xda@'
p194
tp195
Rp196
tp197
s(g4
I193
tp198
(g6
(g10
S'\x00\x00\x00\x00'
p199
tp200
Rp201
g6
(g10
S'#E0A'
p202
tp203
Rp204
tp205
s(g20
I92
tp206
(g6
(g10
S'\x00\x00\x00\x00'
p207
tp208
Rp209
g6
(g10
S'\n~s@'
p210
tp211
Rp212
tp213
s(g29
I124
tp214
(g6
(g10
S'\x00\x00\x00\x00'
p215
tp216
Rp217
g6
(g10
S'a\xdb:A'
p218
tp219
Rp220
tp221
s(g4
I98
tp222
(g6
(g10
S'\x00\x00\x00\x00'
p223
tp224
Rp225
g6
(g10
S'J\xb6\xe8@'
p226
tp227
Rp228
tp229
s(g20
I98
tp230
(g6
(g10
S'\x00\x00\x00\x00'
p231
tp232
Rp233
g6
(g10
S'\x0f\x82*A'
p234
tp235
Rp236
tp237
s(g29
I22
tp238
(g6
(g10
S'\x00\x00\x00\x00'
p239
tp240
Rp241
g6
(g10
S'6"\x85A'
p242
tp243
Rp244
tp245
s(g4
I21
tp246
(g6
(g10
S'\x00\x00\x00\x00'
p247
tp248
Rp249
g6
(g10
S'\xe4\x84\x00B'
p250
tp251
Rp252
tp253
s(g20
I129
tp254
(g6
(g10
S'\x00\x00\x00\x00'
p255
tp256
Rp257
g6
(g10
S'\x91Z\x00B'
p258
tp259
Rp260
tp261
s(g20
I8
tp262
(g6
(g10
S'\x00\x00\x00\x00'
p263
tp264
Rp265
g6
(g10
S'\xf2\xbb\x05A'
p266
tp267
Rp268
tp269
s(g29
I8
tp270
(g6
(g10
S'\x00\x00\x00\x00'
p271
tp272
Rp273
g6
(g10
S'\xf06vA'
p274
tp275
Rp276
tp277
s(g29
I135
tp278
(g6
(g10
S'\x00\x00\x00\x00'
p279
tp280
Rp281
g6
(g10
S'\x82F\x84A'
p282
tp283
Rp284
tp285
s(g4
I15
tp286
(g6
(g10
S'\x00\x00\x00\x00'
p287
tp288
Rp289
g6
(g10
S'#\x02XA'
p290
tp291
Rp292
tp293
s(g20
I167
tp294
(g6
(g10
S'\x00\x00\x00\x00'
p295
tp296
Rp297
g6
(g10
S'\xc9G4A'
p298
tp299
Rp300
tp301
s(g4
I132
tp302
(g6
(g10
S'\x00\x00\x00\x00'
p303
tp304
Rp305
g6
(g10
S'\x9d\r\xaaA'
p306
tp307
Rp308
tp309
s(g20
I46
tp310
(g6
(g10
S'\x00\x00\x00\x00'
p311
tp312
Rp313
g6
(g10
S'\xd2|\xacA'
p314
tp315
Rp316
tp317
s(g29
I34
tp318
(g6
(g10
S'\x00\x00\x00\x00'
p319
tp320
Rp321
g6
(g10
S'\xf8\x0c\x17A'
p322
tp323
Rp324
tp325
s(g29
I185
tp326
(g6
(g10
S'\x00\x00\x00\x00'
p327
tp328
Rp329
g6
(g10
S'\xbb\x1d\x89A'
p330
tp331
Rp332
tp333
s(g4
I41
tp334
(g6
(g10
S'\x00\x00\x00\x00'
p335
tp336
Rp337
g6
(g10
S'\xa8<[A'
p338
tp339
Rp340
tp341
s(g4
I190
tp342
(g6
(g10
S'\x00\x00\x00\x00'
p343
tp344
Rp345
g6
(g10
S';\xffyA'
p346
tp347
Rp348
tp349
s(g20
I52
tp350
(g6
(g10
S'\x00\x00\x00\x00'
p351
tp352
Rp353
g6
(g10
S'#\xef\xe9A'
p354
tp355
Rp356
tp357
s(g29
I83
tp358
(g6
(g10
S'\x00\x00\x00\x00'
p359
tp360
Rp361
g6
(g10
S'\xe2\\\x89A'
p362
tp363
Rp364
tp365
s(g4
I67
tp366
(g6
(g10
S'\x00\x00\x00\x00'
p367
tp368
Rp369
g6
(g10
S'&\x81\xd4@'
p370
tp371
Rp372
tp373
s(S'predictions'
p374
I0
tp375
(g6
(g10
S'\x9d<r\r'
p376
tp377
Rp378
g6
(g10
S'\x00\x00\x80?'
p379
tp380
Rp381
tp382
s(g20
I69
tp383
(g6
(g10
S'\x00\x00\x00\x00'
p384
tp385
Rp386
g6
(g10
S'\xb5\x05PA'
p387
tp388
Rp389
tp390
s(g29
I117
tp391
(g6
(g10
S'\x00\x00\x00\x00'
p392
tp393
Rp394
g6
(g10
S'\xb6\x10\xb4A'
p395
tp396
Rp397
tp398
s(g4
I125
tp399
(g6
(g10
S'\x00\x00\x00\x00'
p400
tp401
Rp402
g6
(g10
S'8\x87oA'
p403
tp404
Rp405
tp406
s(g20
I107
tp407
(g6
(g10
S'\x00\x00\x00\x00'
p408
tp409
Rp410
g6
(g10
S'\xe5\xd1\xce@'
p411
tp412
Rp413
tp414
s(g29
I111
tp415
(g6
(g10
S'\x00\x00\x00\x00'
p416
tp417
Rp418
g6
(g10
S'4v\x99A'
p419
tp420
Rp421
tp422
s(g20
I134
tp423
(g6
(g10
S'\x00\x00\x00\x00'
p424
tp425
Rp426
g6
(g10
S'\xe2\x04sA'
p427
tp428
Rp429
tp430
s(g20
I113
tp431
(g6
(g10
S'\x00\x00\x00\x00'
p432
tp433
Rp434
g6
(g10
S'\x9a\x95\xc5@'
p435
tp436
Rp437
tp438
s(g29
I1
tp439
(g6
(g10
S'\x00\x00\x00\x00'
p440
tp441
Rp442
g6
(g10
S'@\xbb\xc5@'
p443
tp444
Rp445
tp446
s(g29
I152
tp447
(g6
(g10
S'\x00\x00\x00\x00'
p448
tp449
Rp450
g6
(g10
S'\xc0X\xafA'
p451
tp452
Rp453
tp454
s(g4
I6
tp455
(g6
(g10
S'\x00\x00\x00\x00'
p456
tp457
Rp458
g6
(g10
S'}yx@'
p459
tp460
Rp461
tp462
s(g20
I172
tp463
(g6
(g10
S'\x00\x00\x00\x00'
p464
tp465
Rp466
g6
(g10
S'\xad`KA'
p467
tp468
Rp469
tp470
s(g4
I159
tp471
(g6
(g10
S'\x00\x00\x00\x00'
p472
tp473
Rp474
g6
(g10
S'$O\x8b?'
p475
tp476
Rp477
tp478
s(g20
I23
tp479
(g6
(g10
S'\x00\x00\x00\x00'
p480
tp481
Rp482
g6
(g10
S',\x10\x13A'
p483
tp484
Rp485
tp486
s(g29
I59
tp487
(g6
(g10
S'\x00\x00\x00\x00'
p488
tp489
Rp490
g6
(g10
S'}B1A'
p491
tp492
Rp493
tp494
s(g29
I178
tp495
(g6
(g10
S'\x00\x00\x00\x00'
p496
tp497
Rp498
g6
(g10
S'\xad\xb2\x9bA'
p499
tp500
Rp501
tp502
s(g4
I32
tp503
(g6
(g10
S'\x00\x00\x00\x00'
p504
tp505
Rp506
g6
(g10
S'\xa0c\xf1@'
p507
tp508
Rp509
tp510
s(g20
I178
tp511
(g6
(g10
S'\x00\x00\x00\x00'
p512
tp513
Rp514
g6
(g10
S'Gx\x9aA'
p515
tp516
Rp517
tp518
s(g4
I185
tp519
(g6
(g10
S'\x00\x00\x00\x00'
p520
tp521
Rp522
g6
(g10
S'\xcd\xfd\xb6A'
p523
tp524
Rp525
tp526
s(g20
I61
tp527
(g6
(g10
S'\x00\x00\x00\x00'
p528
tp529
Rp530
g6
(g10
S'h\x05\xa3@'
p531
tp532
Rp533
tp534
s(g29
I84
tp535
(g6
(g10
S'\x00\x00\x00\x00'
p536
tp537
Rp538
g6
(g10
S'\x01IOA'
p539
tp540
Rp541
tp542
s(g4
I90
tp543
(g6
(g10
S'\x00\x00\x00\x00'
p544
tp545
Rp546
g6
(g10
S'8EMA'
p547
tp548
Rp549
tp550
s(g20
I195
tp551
(g6
(g10
S'\x00\x00\x00\x00'
p552
tp553
Rp554
g6
(g10
S'\xc6\x1b\xdc@'
p555
tp556
Rp557
tp558
s(g20
I74
tp559
(g6
(g10
S'\x00\x00\x00\x00'
p560
tp561
Rp562
g6
(g10
S'~\x19\x08A'
p563
tp564
Rp565
tp566
s(g29
I78
tp567
(g6
(g10
S'\x00\x00\x00\x00'
p568
tp569
Rp570
g6
(g10
S'\xc5\x14\x1cA'
p571
tp572
Rp573
tp574
s(g4
I116
tp575
(g6
(g10
S'\x00\x00\x00\x00'
p576
tp577
Rp578
g6
(g10
S'\xe7\xce9A'
p579
tp580
Rp581
tp582
s(g29
I197
tp583
(g6
(g10
S'\x00\x00\x00\x00'
p584
tp585
Rp586
g6
(g10
S'\x15=\xa7A'
p587
tp588
Rp589
tp590
s(g20
I80
tp591
(g6
(g10
S'\x00\x00\x00\x00'
p592
tp593
Rp594
g6
(g10
S'\x83\xac\xc5@'
p595
tp596
Rp597
tp598
s(g29
I96
tp599
(g6
(g10
S'\x00\x00\x00\x00'
p600
tp601
Rp602
g6
(g10
S'"\xafmA'
p603
tp604
Rp605
tp606
s(g4
I110
tp607
(g6
(g10
S'\x00\x00\x00\x00'
p608
tp609
Rp610
g6
(g10
S'\xbf\xf9\x9fA'
p611
tp612
Rp613
tp614
s(g20
I143
tp615
(g6
(g10
S'\x00\x00\x00\x00'
p616
tp617
Rp618
g6
(g10
S'\xfcO\x1a?'
p619
tp620
Rp621
tp622
s(g20
I118
tp623
(g6
(g10
S'\x00\x00\x00\x00'
p624
tp625
Rp626
g6
(g10
S'5.(A'
p627
tp628
Rp629
tp630
s(g29
I26
tp631
(g6
(g10
S'\x00\x00\x00\x00'
p632
tp633
Rp634
g6
(g10
S'Vl\x9dA'
p635
tp636
Rp637
tp638
s(g29
I145
tp639
(g6
(g10
S'\x00\x00\x00\x00'
p640
tp641
Rp642
g6
(g10
S'\xf3H\xa9A'
p643
tp644
Rp645
tp646
s(g4
I1
tp647
(g6
(g10
S'\x00\x00\x00\x00'
p648
tp649
Rp650
g6
(g10
S'\x16\xe8rA'
p651
tp652
Rp653
tp654
s(g20
I149
tp655
(g6
(g10
S'\x00\x00\x00\x00'
p656
tp657
Rp658
g6
(g10
S'\xaf\xd6\x8e@'
p659
tp660
Rp661
tp662
s(g4
I150
tp663
(g6
(g10
S'\x00\x00\x00\x00'
p664
tp665
Rp666
g6
(g10
S'q\x82{A'
p667
tp668
Rp669
tp670
s(g20
I28
tp671
(g6
(g10
S'\x00\x00\x00\x00'
p672
tp673
Rp674
g6
(g10
S'\xdf+2A'
p675
tp676
Rp677
tp678
s(g29
I60
tp679
(g6
(g10
S'\x00\x00\x00\x00'
p680
tp681
Rp682
g6
(g10
S'\x07\xb2\x92A'
p683
tp684
Rp685
tp686
s(g29
I139
tp687
(g6
(g10
S'\x00\x00\x00\x00'
p688
tp689
Rp690
g6
(g10
S'\x05h\x10A'
p691
tp692
Rp693
tp694
s(g4
I59
tp695
(g6
(g10
S'\x00\x00\x00\x00'
p696
tp697
Rp698
g6
(g10
S'\xec\xb1\x8eA'
p699
tp700
Rp701
tp702
s(g20
I187
tp703
(g6
(g10
S'\x00\x00\x00\x00'
p704
tp705
Rp706
g6
(g10
S'\x11stA'
p707
tp708
Rp709
tp710
s(g4
I176
tp711
(g6
(g10
S'\x00\x00\x00\x00'
p712
tp713
Rp714
g6
(g10
S'\xbcB\tA'
p715
tp716
Rp717
tp718
s(g20
I34
tp719
(g6
(g10
S'\x00\x00\x00\x00'
p720
tp721
Rp722
g6
(g10
S'0\x06\x12>'
p723
tp724
Rp725
tp726
s(g29
I173
tp727
(g6
(g10
S'\x00\x00\x00\x00'
p728
tp729
Rp730
g6
(g10
S'\x07\xea\x99A'
p731
tp732
Rp733
tp734
s(g4
I85
tp735
(g6
(g10
S'\x00\x00\x00\x00'
p736
tp737
Rp738
g6
(g10
S'\x1b\xa1\xe8A'
p739
tp740
Rp741
tp742
s(g4
I170
tp743
(g6
(g10
S'\x00\x00\x00\x00'
p744
tp745
Rp746
g6
(g10
S'u:\xad@'
p747
tp748
Rp749
tp750
s(g29
I71
tp751
(g6
(g10
S'\x00\x00\x00\x00'
p752
tp753
Rp754
g6
(g10
S'p\xbf\x81A'
p755
tp756
Rp757
tp758
s(g4
I79
tp759
(g6
(g10
S'\x00\x00\x00\x00'
p760
tp761
Rp762
g6
(g10
S'\x1f\xda A'
p763
tp764
Rp765
tp766
s(g4
I196
tp767
(g6
(g10
S'\x00\x00\x00\x00'
p768
tp769
Rp770
g6
(g10
S'\xa1\x1ehA'
p771
tp772
Rp773
tp774
s(g20
I89
tp775
(g6
(g10
S'\x00\x00\x00\x00'
p776
tp777
Rp778
g6
(g10
S'\xf0\xe8\xf0A'
p779
tp780
Rp781
tp782
s(g29
I121
tp783
(g6
(g10
S'\x00\x00\x00\x00'
p784
tp785
Rp786
g6
(g10
S'\x9fS\xe3A'
p787
tp788
Rp789
tp790
s(g4
I105
tp791
(g6
(g10
S'\x00\x00\x00\x00'
p792
tp793
Rp794
g6
(g10
S'\xa0\\FA'
p795
tp796
Rp797
tp798
s(g20
I127
tp799
(g6
(g10
S'\x00\x00\x00\x00'
p800
tp801
Rp802
g6
(g10
S'z\x87bA'
p803
tp804
Rp805
tp806
s(g29
I19
tp807
(g6
(g10
S'\x00\x00\x00\x00'
p808
tp809
Rp810
g6
(g10
S'\xdd\x85\x88A'
p811
tp812
Rp813
tp814
s(g4
I24
tp815
(g6
(g10
S'\x00\x00\x00\x00'
p816
tp817
Rp818
g6
(g10
S'\x06\xb4\x8fA'
p819
tp820
Rp821
tp822
s(g20
I154
tp823
(g6
(g10
S'\x00\x00\x00\x00'
p824
tp825
Rp826
g6
(g10
S'\r|\xe5@'
p827
tp828
Rp829
tp830
s(g4
I145
tp831
(g6
(g10
S'\x00\x00\x00\x00'
p832
tp833
Rp834
g6
(g10
S'b\x8bg@'
p835
tp836
Rp837
tp838
s(g20
I5
tp839
(g6
(g10
S'\x00\x00\x00\x00'
p840
tp841
Rp842
g6
(g10
S'[T\xa1A'
p843
tp844
Rp845
tp846
s(g29
I53
tp847
(g6
(g10
S'\x00\x00\x00\x00'
p848
tp849
Rp850
g6
(g10
S"\x84\xfa'A"
p851
tp852
Rp853
tp854
s(g29
I140
tp855
(g6
(g10
S'\x00\x00\x00\x00'
p856
tp857
Rp858
g6
(g10
S'W\xe1\nA'
p859
tp860
Rp861
tp862
s(g4
I50
tp863
(g6
(g10
S'\x00\x00\x00\x00'
p864
tp865
Rp866
g6
(g10
S'\xd7%\nA'
p867
tp868
Rp869
tp870
s(g20
I160
tp871
(g6
(g10
S'\x00\x00\x00\x00'
p872
tp873
Rp874
g6
(g10
S'VB&A'
p875
tp876
Rp877
tp878
s(g4
I139
tp879
(g6
(g10
S'\x00\x00\x00\x00'
p880
tp881
Rp882
g6
(g10
S'S\xea>A'
p883
tp884
Rp885
tp886
s(g20
I43
tp887
(g6
(g10
S'\x00\x00\x00\x00'
p888
tp889
Rp890
g6
(g10
S'\xaa\xa9\xd7A'
p891
tp892
Rp893
tp894
s(g29
I47
tp895
(g6
(g10
S'\x00\x00\x00\x00'
p896
tp897
Rp898
g6
(g10
S'e@MA'
p899
tp900
Rp901
tp902
s(g29
I166
tp903
(g6
(g10
S'\x00\x00\x00\x00'
p904
tp905
Rp906
g6
(g10
S'\xcd\x15\x8eA'
p907
tp908
Rp909
tp910
s(g4
I44
tp911
(g6
(g10
S'\x00\x00\x00\x00'
p912
tp913
Rp914
g6
(g10
S'\xee}\xb2A'
p915
tp916
Rp917
tp918
s(g4
I165
tp919
(g6
(g10
S'\x00\x00\x00\x00'
p920
tp921
Rp922
g6
(g10
S'\xa9\xcbrA'
p923
tp924
Rp925
tp926
s(g20
I49
tp927
(g6
(g10
S'\x00\x00\x00\x00'
p928
tp929
Rp930
g6
(g10
S'/\xb5$A'
p931
tp932
Rp933
tp934
s(g29
I88
tp935
(g6
(g10
S'\x00\x00\x00\x00'
p936
tp937
Rp938
g6
(g10
S'X SA'
p939
tp940
Rp941
tp942
s(g4
I70
tp943
(g6
(g10
S'\x00\x00\x00\x00'
p944
tp945
Rp946
g6
(g10
S'\xf4\x06\x03A'
p947
tp948
Rp949
tp950
s(g20
I94
tp951
(g6
(g10
S'\x00\x00\x00\x00'
p952
tp953
Rp954
g6
(g10
S'\x16\xd5\xdfA'
p955
tp956
Rp957
tp958
s(g29
I114
tp959
(g6
(g10
S'\x00\x00\x00\x00'
p960
tp961
Rp962
g6
(g10
S'\xd0\xf16A'
p963
tp964
Rp965
tp966
s(g4
I96
tp967
(g6
(g10
S'\x00\x00\x00\x00'
p968
tp969
Rp970
g6
(g10
S'v]VA'
p971
tp972
Rp973
tp974
s(g20
I100
tp975
(g6
(g10
S'\x00\x00\x00\x00'
p976
tp977
Rp978
g6
(g10
S'\x83[\x93>'
p979
tp980
Rp981
tp982
s(g29
I20
tp983
(g6
(g10
S'\x00\x00\x00\x00'
p984
tp985
Rp986
g6
(g10
S'\xedX\x8aA'
p987
tp988
Rp989
tp990
s(g4
I19
tp991
(g6
(g10
S'\x00\x00\x00\x00'
p992
tp993
Rp994
g6
(g10
S'\xb5\xe2\x82A'
p995
tp996
Rp997
tp998
s(g20
I131
tp999
(g6
(g10
S'\x00\x00\x00\x00'
p1000
tp1001
Rp1002
g6
(g10
S'<ckA'
p1003
tp1004
Rp1005
tp1006
s(g20
I10
tp1007
(g6
(g10
S'\x00\x00\x00\x00'
p1008
tp1009
Rp1010
g6
(g10
S'\x0ew\xa4A'
p1011
tp1012
Rp1013
tp1014
s(g29
I14
tp1015
(g6
(g10
S'\x00\x00\x00\x00'
p1016
tp1017
Rp1018
g6
(g10
S'\x968lA'
p1019
tp1020
Rp1021
tp1022
s(g29
I133
tp1023
(g6
(g10
S'\x00\x00\x00\x00'
p1024
tp1025
Rp1026
g6
(g10
S'\x14\xcfzA'
p1027
tp1028
Rp1029
tp1030
s(g4
I13
tp1031
(g6
(g10
S'\x00\x00\x00\x00'
p1032
tp1033
Rp1034
g6
(g10
S'\x06\x8a\x81A'
p1035
tp1036
Rp1037
tp1038
s(g20
I169
tp1039
(g6
(g10
S'\x00\x00\x00\x00'
p1040
tp1041
Rp1042
g6
(g10
S'\xe6\xfa\x9e@'
p1043
tp1044
Rp1045
tp1046
s(g4
I130
tp1047
(g6
(g10
S'\x00\x00\x00\x00'
p1048
tp1049
Rp1050
g6
(g10
S'\r\x8c\x83A'
p1051
tp1052
Rp1053
tp1054
s(g20
I16
tp1055
(g6
(g10
S'\x00\x00\x00\x00'
p1056
tp1057
Rp1058
g6
(g10
S"\xf7~'A"
p1059
tp1060
Rp1061
tp1062
s(g29
I32
tp1063
(g6
(g10
S'\x00\x00\x00\x00'
p1064
tp1065
Rp1066
g6
(g10
S'2\xbcRA'
p1067
tp1068
Rp1069
tp1070
s(g29
I191
tp1071
(g6
(g10
S'\x00\x00\x00\x00'
p1072
tp1073
Rp1074
g6
(g10
S'\xda\xe6\xe3A'
p1075
tp1076
Rp1077
tp1078
s(g4
I39
tp1079
(g6
(g10
S'\x00\x00\x00\x00'
p1080
tp1081
Rp1082
g6
(g10
S'\xb7\xa8\x9a@'
p1083
tp1084
Rp1085
tp1086
s(g4
I188
tp1087
(g6
(g10
S'\x00\x00\x00\x00'
p1088
tp1089
Rp1090
g6
(g10
S'\x14KR@'
p1091
tp1092
Rp1093
tp1094
s(g20
I54
tp1095
(g6
(g10
S'\x00\x00\x00\x00'
p1096
tp1097
Rp1098
g6
(g10
S'\xe0BkA'
p1099
tp1100
Rp1101
tp1102
s(g29
I81
tp1103
(g6
(g10
S'\x00\x00\x00\x00'
p1104
tp1105
Rp1106
g6
(g10
S'\x17\xef\x8eA'
p1107
tp1108
Rp1109
tp1110
s(g4
I65
tp1111
(g6
(g10
S'\x00\x00\x00\x00'
p1112
tp1113
Rp1114
g6
(g10
S'M_\xf0@'
p1115
tp1116
Rp1117
tp1118
s(g20
I71
tp1119
(g6
(g10
S'\x00\x00\x00\x00'
p1120
tp1121
Rp1122
g6
(g10
S'J\xcd\xcc='
p1123
tp1124
Rp1125
tp1126
s(g29
I75
tp1127
(g6
(g10
S'\x00\x00\x00\x00'
p1128
tp1129
Rp1130
g6
(g10
S'\xd7\xd1\xcdA'
p1131
tp1132
Rp1133
tp1134
s(g4
I123
tp1135
(g6
(g10
S'\x00\x00\x00\x00'
p1136
tp1137
Rp1138
g6
(g10
S'T\x15\xe1@'
p1139
tp1140
Rp1141
tp1142
s(g29
I194
tp1143
(g6
(g10
S'\x00\x00\x00\x00'
p1144
tp1145
Rp1146
g6
(g10
S'\x8b\x869A'
p1147
tp1148
Rp1149
tp1150
s(g20
I109
tp1151
(g6
(g10
S'\x00\x00\x00\x00'
p1152
tp1153
Rp1154
g6
(g10
S'\x01\x8eIA'
p1155
tp1156
Rp1157
tp1158
s(g29
I109
tp1159
(g6
(g10
S'\x00\x00\x00\x00'
p1160
tp1161
Rp1162
g6
(g10
S'\x9bS\x80A'
p1163
tp1164
Rp1165
tp1166
s(g20
I136
tp1167
(g6
(g10
S'\x00\x00\x00\x00'
p1168
tp1169
Rp1170
g6
(g10
S'\xa9\xd4VA'
p1171
tp1172
Rp1173
tp1174
s(g20
I115
tp1175
(g6
(g10
S'\x00\x00\x00\x00'
p1176
tp1177
Rp1178
g6
(g10
S'#\xbb\xc4A'
p1179
tp1180
Rp1181
tp1182
s(g29
I7
tp1183
(g6
(g10
S'\x00\x00\x00\x00'
p1184
tp1185
Rp1186
g6
(g10
S'\xea\x18\x96A'
p1187
tp1188
Rp1189
tp1190
s(g29
I158
tp1191
(g6
(g10
S'\x00\x00\x00\x00'
p1192
tp1193
Rp1194
g6
(g10
S'\xb3$\x15A'
p1195
tp1196
Rp1197
tp1198
s(g4
I4
tp1199
(g6
(g10
S'\x00\x00\x00\x00'
p1200
tp1201
Rp1202
g6
(g10
S'T\xe3\xc6@'
p1203
tp1204
Rp1205
tp1206
s(g20
I174
tp1207
(g6
(g10
S'\x00\x00\x00\x00'
p1208
tp1209
Rp1210
g6
(g10
S'\x05\xb3\x97A'
p1211
tp1212
Rp1213
tp1214
s(g4
I157
tp1215
(g6
(g10
S'\x00\x00\x00\x00'
p1216
tp1217
Rp1218
g6
(g10
S'\x06;\xc7A'
p1219
tp1220
Rp1221
tp1222
s(g20
I25
tp1223
(g6
(g10
S'\x00\x00\x00\x00'
p1224
tp1225
Rp1226
g6
(g10
S'\xaazCA'
p1227
tp1228
Rp1229
tp1230
s(g29
I57
tp1231
(g6
(g10
S'\x00\x00\x00\x00'
p1232
tp1233
Rp1234
g6
(g10
S'\x7ff\xbdA'
p1235
tp1236
Rp1237
tp1238
s(g29
I176
tp1239
(g6
(g10
S'\x00\x00\x00\x00'
p1240
tp1241
Rp1242
g6
(g10
S'\xa8\x1b\x82A'
p1243
tp1244
Rp1245
tp1246
s(g4
I62
tp1247
(g6
(g10
S'\x00\x00\x00\x00'
p1248
tp1249
Rp1250
g6
(g10
S'p\x82\x99A'
p1251
tp1252
Rp1253
tp1254
s(g20
I180
tp1255
(g6
(g10
S'\x00\x00\x00\x00'
p1256
tp1257
Rp1258
g6
(g10
S'\xf9\x89\xf3@'
p1259
tp1260
Rp1261
tp1262
s(g4
I183
tp1263
(g6
(g10
S'\x00\x00\x00\x00'
p1264
tp1265
Rp1266
g6
(g10
S'\xa6j\x10A'
p1267
tp1268
Rp1269
tp1270
s(g20
I63
tp1271
(g6
(g10
S'\x00\x00\x00\x00'
p1272
tp1273
Rp1274
g6
(g10
S'\xe3kTA'
p1275
tp1276
Rp1277
tp1278
s(g29
I170
tp1279
(g6
(g10
S'\x00\x00\x00\x00'
p1280
tp1281
Rp1282
g6
(g10
S'q\xc9\xf2A'
p1283
tp1284
Rp1285
tp1286
s(g4
I88
tp1287
(g6
(g10
S'\x00\x00\x00\x00'
p1288
tp1289
Rp1290
g6
(g10
S"\xe2'\xeb@"
p1291
tp1292
Rp1293
tp1294
s(g20
I197
tp1295
(g6
(g10
S'\x00\x00\x00\x00'
p1296
tp1297
Rp1298
g6
(g10
S'\x8cn/A'
p1299
tp1300
Rp1301
tp1302
s(g20
I76
tp1303
(g6
(g10
S'\x00\x00\x00\x00'
p1304
tp1305
Rp1306
g6
(g10
S'i\x86\xdc@'
p1307
tp1308
Rp1309
tp1310
s(g29
I76
tp1311
(g6
(g10
S'\x00\x00\x00\x00'
p1312
tp1313
Rp1314
g6
(g10
S'\x91\x10\x87A'
p1315
tp1316
Rp1317
tp1318
s(g4
I114
tp1319
(g6
(g10
S'\x00\x00\x00\x00'
p1320
tp1321
Rp1322
g6
(g10
S'v\x03\x0fA'
p1323
tp1324
Rp1325
tp1326
s(g20
I82
tp1327
(g6
(g10
S'\x00\x00\x00\x00'
p1328
tp1329
Rp1330
g6
(g10
S'\xebV\x19A'
p1331
tp1332
Rp1333
tp1334
s(g29
I102
tp1335
(g6
(g10
S'\x00\x00\x00\x00'
p1336
tp1337
Rp1338
g6
(g10
S'\x8d\x029A'
p1339
tp1340
Rp1341
tp1342
s(g4
I108
tp1343
(g6
(g10
S'\x00\x00\x00\x00'
p1344
tp1345
Rp1346
g6
(g10
S'\xbbA+A'
p1347
tp1348
Rp1349
tp1350
s(g20
I120
tp1351
(g6
(g10
S'\x00\x00\x00\x00'
p1352
tp1353
Rp1354
g6
(g10
S'\x96\x89\x8f>'
p1355
tp1356
Rp1357
tp1358
s(g29
I24
tp1359
(g6
(g10
S'\x00\x00\x00\x00'
p1360
tp1361
Rp1362
g6
(g10
S'h\xbbtA'
p1363
tp1364
Rp1365
tp1366
s(g29
I151
tp1367
(g6
(g10
S'\x00\x00\x00\x00'
p1368
tp1369
Rp1370
g6
(g10
S'\xd5\xcc\x82A'
p1371
tp1372
Rp1373
tp1374
s(g4
I31
tp1375
(g6
(g10
S'\x00\x00\x00\x00'
p1376
tp1377
Rp1378
g6
(g10
S'\x03\x7f\xa7A'
p1379
tp1380
Rp1381
tp1382
s(g20
I151
tp1383
(g6
(g10
S'\x00\x00\x00\x00'
p1384
tp1385
Rp1386
g6
(g10
S'\xbc<\xadA'
p1387
tp1388
Rp1389
tp1390
s(g4
I148
tp1391
(g6
(g10
S'\x00\x00\x00\x00'
p1392
tp1393
Rp1394
g6
(g10
S'9p\xaaA'
p1395
tp1396
Rp1397
tp1398
s(g20
I30
tp1399
(g6
(g10
S'\x00\x00\x00\x00'
p1400
tp1401
Rp1402
g6
(g10
S'\\L\xbdA'
p1403
tp1404
Rp1405
tp1406
s(g29
I50
tp1407
(g6
(g10
S'\x00\x00\x00\x00'
p1408
tp1409
Rp1410
g6
(g10
S'\x14\x0f*A'
p1411
tp1412
Rp1413
tp1414
s(g29
I137
tp1415
(g6
(g10
S'\x00\x00\x00\x00'
p1416
tp1417
Rp1418
g6
(g10
S'\x02\xc8\xb5A'
p1419
tp1420
Rp1421
tp1422
s(g4
I57
tp1423
(g6
(g10
S'\x00\x00\x00\x00'
p1424
tp1425
Rp1426
g6
(g10
S'\x1d\xda\x0e@'
p1427
tp1428
Rp1429
tp1430
s(g20
I189
tp1431
(g6
(g10
S'\x00\x00\x00\x00'
p1432
tp1433
Rp1434
g6
(g10
S'\x7f\x9e\x8bA'
p1435
tp1436
Rp1437
tp1438
s(g4
I142
tp1439
(g6
(g10
S'\x00\x00\x00\x00'
p1440
tp1441
Rp1442
g6
(g10
S'o\x969A'
p1443
tp1444
Rp1445
tp1446
s(g20
I36
tp1447
(g6
(g10
S'\x00\x00\x00\x00'
p1448
tp1449
Rp1450
g6
(g10
S'\xc2\x02X?'
p1451
tp1452
Rp1453
tp1454
s(g29
I163
tp1455
(g6
(g10
S'\x00\x00\x00\x00'
p1456
tp1457
Rp1458
g6
(g10
S'^uRA'
p1459
tp1460
Rp1461
tp1462
s(g4
I83
tp1463
(g6
(g10
S'\x00\x00\x00\x00'
p1464
tp1465
Rp1466
g6
(g10
S'\xf7\xf4\x83A'
p1467
tp1468
Rp1469
tp1470
s(g4
I168
tp1471
(g6
(g10
S'\x00\x00\x00\x00'
p1472
tp1473
Rp1474
g6
(g10
S'\xf3\x15kA'
p1475
tp1476
Rp1477
tp1478
s(g29
I69
tp1479
(g6
(g10
S'\x00\x00\x00\x00'
p1480
tp1481
Rp1482
g6
(g10
S'\xeeJyA'
p1483
tp1484
Rp1485
tp1486
s(g4
I77
tp1487
(g6
(g10
S'\x00\x00\x00\x00'
p1488
tp1489
Rp1490
g6
(g10
S'!\xde\xa5@'
p1491
tp1492
Rp1493
tp1494
s(g4
I194
tp1495
(g6
(g10
S'\x00\x00\x00\x00'
p1496
tp1497
Rp1498
g6
(g10
S'\x1d\xfb\x1dA'
p1499
tp1500
Rp1501
tp1502
s(g20
I91
tp1503
(g6
(g10
S'\x00\x00\x00\x00'
p1504
tp1505
Rp1506
g6
(g10
S'\x167#A'
p1507
tp1508
Rp1509
tp1510
s(g29
I127
tp1511
(g6
(g10
S'\x00\x00\x00\x00'
p1512
tp1513
Rp1514
g6
(g10
S'\xb2a#A'
p1515
tp1516
Rp1517
tp1518
s(g4
I103
tp1519
(g6
(g10
S'\x00\x00\x00\x00'
p1520
tp1521
Rp1522
g6
(g10
S'\xade\x87A'
p1523
tp1524
Rp1525
tp1526
s(g20
I97
tp1527
(g6
(g10
S'\x00\x00\x00\x00'
p1528
tp1529
Rp1530
g6
(g10
S'\xf8\xf76@'
p1531
tp1532
Rp1533
tp1534
s(g29
I17
tp1535
(g6
(g10
S'\x00\x00\x00\x00'
p1536
tp1537
Rp1538
g6
(g10
S'(-|A'
p1539
tp1540
Rp1541
tp1542
s(g4
I22
tp1543
(g6
(g10
S'\x00\x00\x00\x00'
p1544
tp1545
Rp1546
g6
(g10
S'\xd8\x130A'
p1547
tp1548
Rp1549
tp1550
s(g20
I156
tp1551
(g6
(g10
S'\x00\x00\x00\x00'
p1552
tp1553
Rp1554
g6
(g10
S'\x8cD5A'
p1555
tp1556
Rp1557
tp1558
s(g20
I7
tp1559
(g6
(g10
S'\x00\x00\x00\x00'
p1560
tp1561
Rp1562
g6
(g10
S'\x97\xb95A'
p1563
tp1564
Rp1565
tp1566
s(g29
I11
tp1567
(g6
(g10
S'\x00\x00\x00\x00'
p1568
tp1569
Rp1570
g6
(g10
S'Ik\x90A'
p1571
tp1572
Rp1573
tp1574
s(g29
I130
tp1575
(g6
(g10
S'\x00\x00\x00\x00'
p1576
tp1577
Rp1578
g6
(g10
S'\xb4\x06\x80A'
p1579
tp1580
Rp1581
tp1582
s(g4
I48
tp1583
(g6
(g10
S'\x00\x00\x00\x00'
p1584
tp1585
Rp1586
g6
(g10
S'\x0b]<A'
p1587
tp1588
Rp1589
tp1590
s(g20
I162
tp1591
(g6
(g10
S'\x00\x00\x00\x00'
p1592
tp1593
Rp1594
g6
(g10
S'\xb2x\x03B'
p1595
tp1596
Rp1597
tp1598
s(g4
I137
tp1599
(g6
(g10
S'\x00\x00\x00\x00'
p1600
tp1601
Rp1602
g6
(g10
S'\x85\xd5=A'
p1603
tp1604
Rp1605
tp1606
s(g20
I45
tp1607
(g6
(g10
S'\x00\x00\x00\x00'
p1608
tp1609
Rp1610
g6
(g10
S'\x12\xbf\x9eA'
p1611
tp1612
Rp1613
tp1614
s(g29
I45
tp1615
(g6
(g10
S'\x00\x00\x00\x00'
p1616
tp1617
Rp1618
g6
(g10
S'\x14OrA'
p1619
tp1620
Rp1621
tp1622
s(g29
I164
tp1623
(g6
(g10
S'\x00\x00\x00\x00'
p1624
tp1625
Rp1626
g6
(g10
S'\x08\x84\x1fA'
p1627
tp1628
Rp1629
tp1630
s(g4
I42
tp1631
(g6
(g10
S'\x00\x00\x00\x00'
p1632
tp1633
Rp1634
g6
(g10
S'g\\\x19A'
p1635
tp1636
Rp1637
tp1638
s(g4
I163
tp1639
(g6
(g10
S'\x00\x00\x00\x00'
p1640
tp1641
Rp1642
g6
(g10
S'\xbc\xd5\xacA'
p1643
tp1644
Rp1645
tp1646
s(g20
I51
tp1647
(g6
(g10
S'\x00\x00\x00\x00'
p1648
tp1649
Rp1650
g6
(g10
S']]\xe4>'
p1651
tp1652
Rp1653
tp1654
s(g29
I94
tp1655
(g6
(g10
S'\x00\x00\x00\x00'
p1656
tp1657
Rp1658
g6
(g10
S'\xf6\x06@A'
p1659
tp1660
Rp1661
tp1662
s(g4
I68
tp1663
(g6
(g10
S'\x00\x00\x00\x00'
p1664
tp1665
Rp1666
g6
(g10
S'6\xad@A'
p1667
tp1668
Rp1669
tp1670
s(g20
I64
tp1671
(g6
(g10
S'\x00\x00\x00\x00'
p1672
tp1673
Rp1674
g6
(g10
S'\x89\xe6M@'
p1675
tp1676
Rp1677
tp1678
s(g29
I112
tp1679
(g6
(g10
S'\x00\x00\x00\x00'
p1680
tp1681
Rp1682
g6
(g10
S'\xd6x\xbaA'
p1683
tp1684
Rp1685
tp1686
s(g4
I126
tp1687
(g6
(g10
S'\x00\x00\x00\x00'
p1688
tp1689
Rp1690
g6
(g10
S'\x82\x1d\xe5@'
p1691
tp1692
Rp1693
tp1694
s(g20
I102
tp1695
(g6
(g10
S'\x00\x00\x00\x00'
p1696
tp1697
Rp1698
g6
(g10
S'[[\xc8A'
p1699
tp1700
Rp1701
tp1702
s(g29
I106
tp1703
(g6
(g10
S'\x00\x00\x00\x00'
p1704
tp1705
Rp1706
g6
(g10
S'\x01\x14\x86A'
p1707
tp1708
Rp1709
tp1710
s(g4
I17
tp1711
(g6
(g10
S'\x00\x00\x00\x00'
p1712
tp1713
Rp1714
g6
(g10
S'0/\xf4@'
p1715
tp1716
Rp1717
tp1718
s(g20
I133
tp1719
(g6
(g10
S'\x00\x00\x00\x00'
p1720
tp1721
Rp1722
g6
(g10
S'\x1e\xc5*A'
p1723
tp1724
Rp1725
tp1726
s(g20
I12
tp1727
(g6
(g10
S'\x00\x00\x00\x00'
p1728
tp1729
Rp1730
g6
(g10
S'@\x04\xadA'
p1731
tp1732
Rp1733
tp1734
s(g29
I12
tp1735
(g6
(g10
S'\x00\x00\x00\x00'
p1736
tp1737
Rp1738
g6
(g10
S'?riA'
p1739
tp1740
Rp1741
tp1742
s(g29
I155
tp1743
(g6
(g10
S'\x00\x00\x00\x00'
p1744
tp1745
Rp1746
g6
(g10
S'\x1bs\x0cB'
p1747
tp1748
Rp1749
tp1750
s(g4
I11
tp1751
(g6
(g10
S'\x00\x00\x00\x00'
p1752
tp1753
Rp1754
g6
(g10
S'_q=A'
p1755
tp1756
Rp1757
tp1758
s(g20
I171
tp1759
(g6
(g10
S'\x00\x00\x00\x00'
p1760
tp1761
Rp1762
g6
(g10
S'\xe7\xfa\tA'
p1763
tp1764
Rp1765
tp1766
s(g4
I128
tp1767
(g6
(g10
S'\x00\x00\x00\x00'
p1768
tp1769
Rp1770
g6
(g10
S'2\xea\x08A'
p1771
tp1772
Rp1773
tp1774
s(g20
I18
tp1775
(g6
(g10
S'\x00\x00\x00\x00'
p1776
tp1777
Rp1778
g6
(g10
S'\xb8\x84\x82@'
p1779
tp1780
Rp1781
tp1782
s(g29
I38
tp1783
(g6
(g10
S'\x00\x00\x00\x00'
p1784
tp1785
Rp1786
g6
(g10
S'\x14z\x97A'
p1787
tp1788
Rp1789
tp1790
s(g29
I189
tp1791
(g6
(g10
S'\x00\x00\x00\x00'
p1792
tp1793
Rp1794
g6
(g10
S'E\x95#A'
p1795
tp1796
Rp1797
tp1798
s(g4
I37
tp1799
(g6
(g10
S'\x00\x00\x00\x00'
p1800
tp1801
Rp1802
g6
(g10
S'F\xf3\nA'
p1803
tp1804
Rp1805
tp1806
s(g20
I177
tp1807
(g6
(g10
S'\x00\x00\x00\x00'
p1808
tp1809
Rp1810
g6
(g10
S'Y\x7f~?'
p1811
tp1812
Rp1813
tp1814
s(g4
I186
tp1815
(g6
(g10
S'\x00\x00\x00\x00'
p1816
tp1817
Rp1818
g6
(g10
S'\xd9\x9a\x1eA'
p1819
tp1820
Rp1821
tp1822
s(g20
I56
tp1823
(g6
(g10
S'\x00\x00\x00\x00'
p1824
tp1825
Rp1826
g6
(g10
S'\xe8$TA'
p1827
tp1828
Rp1829
tp1830
s(S'before_softmax'
p1831
I0
tp1832
(g6
(g10
S'\x90\x0b\x02\xc2'
p1833
tp1834
Rp1835
g6
(g10
S'R\x97\xcdB'
p1836
tp1837
Rp1838
tp1839
s(g29
I87
tp1840
(g6
(g10
S'\x00\x00\x00\x00'
p1841
tp1842
Rp1843
g6
(g10
S'\x0e\x8d!A'
p1844
tp1845
Rp1846
tp1847
s(g4
I95
tp1848
(g6
(g10
S'\x00\x00\x00\x00'
p1849
tp1850
Rp1851
g6
(g10
S'\xa5\xad\x9cA'
p1852
tp1853
Rp1854
tp1855
s(g20
I73
tp1856
(g6
(g10
S'\x00\x00\x00\x00'
p1857
tp1858
Rp1859
g6
(g10
S'o\x82B>'
p1860
tp1861
Rp1862
tp1863
s(g29
I73
tp1864
(g6
(g10
S'\x00\x00\x00\x00'
p1865
tp1866
Rp1867
g6
(g10
S'?\x9ebA'
p1868
tp1869
Rp1870
tp1871
s(g4
I121
tp1872
(g6
(g10
S'\x00\x00\x00\x00'
p1873
tp1874
Rp1875
g6
(g10
S'\xc5p\x12A'
p1876
tp1877
Rp1878
tp1879
s(g29
I192
tp1880
(g6
(g10
S'\x00\x00\x00\x00'
p1881
tp1882
Rp1883
g6
(g10
S'\x9f\x1a\x96A'
p1884
tp1885
Rp1886
tp1887
s(g20
I111
tp1888
(g6
(g10
S'\x00\x00\x00\x00'
p1889
tp1890
Rp1891
g6
(g10
S'\xa3\xdc=A'
p1892
tp1893
Rp1894
tp1895
s(g29
I99
tp1896
(g6
(g10
S'\x00\x00\x00\x00'
p1897
tp1898
Rp1899
g6
(g10
S'\xe7\xd8\x83A'
p1900
tp1901
Rp1902
tp1903
s(g20
I138
tp1904
(g6
(g10
S'\x00\x00\x00\x00'
p1905
tp1906
Rp1907
g6
(g10
S'\x04\n\x16A'
p1908
tp1909
Rp1910
tp1911
s(g20
I117
tp1912
(g6
(g10
S'\x00\x00\x00\x00'
p1913
tp1914
Rp1915
g6
(g10
S'\xa6lu@'
p1916
tp1917
Rp1918
tp1919
s(g29
I5
tp1920
(g6
(g10
S'\x00\x00\x00\x00'
p1921
tp1922
Rp1923
g6
(g10
S']j\xbeA'
p1924
tp1925
Rp1926
tp1927
s(g29
I156
tp1928
(g6
(g10
S'\x00\x00\x00\x00'
p1929
tp1930
Rp1931
g6
(g10
S'\xafS\xb6A'
p1932
tp1933
Rp1934
tp1935
s(g4
I2
tp1936
(g6
(g10
S'\x00\x00\x00\x00'
p1937
tp1938
Rp1939
g6
(g10
S'FZtA'
p1940
tp1941
Rp1942
tp1943
s(g20
I144
tp1944
(g6
(g10
S'\x00\x00\x00\x00'
p1945
tp1946
Rp1947
g6
(g10
S'\xcd\x0e%A'
p1948
tp1949
Rp1950
tp1951
s(g4
I155
tp1952
(g6
(g10
S'\x00\x00\x00\x00'
p1953
tp1954
Rp1955
g6
(g10
S'\x83)\\A'
p1956
tp1957
Rp1958
tp1959
s(g20
I27
tp1960
(g6
(g10
S'\x00\x00\x00\x00'
p1961
tp1962
Rp1963
g6
(g10
S'\x00/\xb2@'
p1964
tp1965
Rp1966
tp1967
s(g29
I63
tp1968
(g6
(g10
S'\x00\x00\x00\x00'
p1969
tp1970
Rp1971
g6
(g10
S'\xe1\xeb\xd5A'
p1972
tp1973
Rp1974
tp1975
s(g29
I182
tp1976
(g6
(g10
S'\x00\x00\x00\x00'
p1977
tp1978
Rp1979
g6
(g10
S'\x1d-\x8bA'
p1980
tp1981
Rp1982
tp1983
s(g4
I60
tp1984
(g6
(g10
S'\x00\x00\x00\x00'
p1985
tp1986
Rp1987
g6
(g10
S'\xa05\xa9A'
p1988
tp1989
Rp1990
tp1991
s(g20
I182
tp1992
(g6
(g10
S'\x00\x00\x00\x00'
p1993
tp1994
Rp1995
g6
(g10
S'a\xd6\x0fA'
p1996
tp1997
Rp1998
tp1999
s(g4
I181
tp2000
(g6
(g10
S'\x00\x00\x00\x00'
p2001
tp2002
Rp2003
g6
(g10
S'\xa7\xad\x89A'
p2004
tp2005
Rp2006
tp2007
s(g20
I33
tp2008
(g6
(g10
S'\x00\x00\x00\x00'
p2009
tp2010
Rp2011
g6
(g10
S'p\x04\xe9?'
p2012
tp2013
Rp2014
tp2015
s(g29
I168
tp2016
(g6
(g10
S'\x00\x00\x00\x00'
p2017
tp2018
Rp2019
g6
(g10
S'9\xda\x81A'
p2020
tp2021
Rp2022
tp2023
s(g4
I86
tp2024
(g6
(g10
S'\x00\x00\x00\x00'
p2025
tp2026
Rp2027
g6
(g10
S'\x16\x91\x9aA'
p2028
tp2029
Rp2030
tp2031
s(g4
I175
tp2032
(g6
(g10
S'\x00\x00\x00\x00'
p2033
tp2034
Rp2035
g6
(g10
S'\x8fBSA'
p2036
tp2037
Rp2038
tp2039
s(g20
I199
tp2040
(g6
(g10
S'\x00\x00\x00\x00'
p2041
tp2042
Rp2043
g6
(g10
S'\xa4\xe9\xd5@'
p2044
tp2045
Rp2046
tp2047
s(g20
I78
tp2048
(g6
(g10
S'\x00\x00\x00\x00'
p2049
tp2050
Rp2051
g6
(g10
S'\xc7S\\A'
p2052
tp2053
Rp2054
tp2055
s(g29
I66
tp2056
(g6
(g10
S'\x00\x00\x00\x00'
p2057
tp2058
Rp2059
g6
(g10
S"\xe8'aA"
p2060
tp2061
Rp2062
tp2063
s(g4
I112
tp2064
(g6
(g10
S'\x00\x00\x00\x00'
p2065
tp2066
Rp2067
g6
(g10
S'\xab\n\xb7A'
p2068
tp2069
Rp2070
tp2071
s(g20
I84
tp2072
(g6
(g10
S'\x00\x00\x00\x00'
p2073
tp2074
Rp2075
g6
(g10
S'I\x88\x17A'
p2076
tp2077
Rp2078
tp2079
s(g29
I100
tp2080
(g6
(g10
S'\x00\x00\x00\x00'
p2081
tp2082
Rp2083
g6
(g10
S'\x92(\x92A'
p2084
tp2085
Rp2086
tp2087
s(g4
I106
tp2088
(g6
(g10
S'\x00\x00\x00\x00'
p2089
tp2090
Rp2091
g6
(g10
S'\xbc9&A'
p2092
tp2093
Rp2094
tp2095
s(g20
I122
tp2096
(g6
(g10
S'\x00\x00\x00\x00'
p2097
tp2098
Rp2099
g6
(g10
S':\xce\x1cA'
p2100
tp2101
Rp2102
tp2103
s(g29
I30
tp2104
(g6
(g10
S'\x00\x00\x00\x00'
p2105
tp2106
Rp2107
g6
(g10
S'\n\xb7\x8dA'
p2108
tp2109
Rp2110
tp2111
s(g29
I149
tp2112
(g6
(g10
S'\x00\x00\x00\x00'
p2113
tp2114
Rp2115
g6
(g10
S'V\xd6\x97A'
p2116
tp2117
Rp2118
tp2119
s(g4
I29
tp2120
(g6
(g10
S'\x00\x00\x00\x00'
p2121
tp2122
Rp2123
g6
(g10
S'\x01\x8bTA'
p2124
tp2125
Rp2126
tp2127
s(g20
I153
tp2128
(g6
(g10
S'\x00\x00\x00\x00'
p2129
tp2130
Rp2131
g6
(g10
S'W\x08dA'
p2132
tp2133
Rp2134
tp2135
s(g4
I146
tp2136
(g6
(g10
S'\x00\x00\x00\x00'
p2137
tp2138
Rp2139
g6
(g10
S'>J\xcdA'
p2140
tp2141
Rp2142
tp2143
s(g20
I0
tp2144
(g6
(g10
S'\x00\x00\x00\x00'
p2145
tp2146
Rp2147
g6
(g10
S'3\x826A'
p2148
tp2149
Rp2150
tp2151
s(g29
I48
tp2152
(g6
(g10
S'\x00\x00\x00\x00'
p2153
tp2154
Rp2155
g6
(g10
S'\x13b\x88A'
p2156
tp2157
Rp2158
tp2159
s(g29
I143
tp2160
(g6
(g10
S'\x00\x00\x00\x00'
p2161
tp2162
Rp2163
g6
(g10
S'Q\x92\xc1A'
p2164
tp2165
Rp2166
tp2167
s(g4
I55
tp2168
(g6
(g10
S'\x00\x00\x00\x00'
p2169
tp2170
Rp2171
g6
(g10
S'\xe5?\x86A'
p2172
tp2173
Rp2174
tp2175
s(g20
I191
tp2176
(g6
(g10
S'\x00\x00\x00\x00'
p2177
tp2178
Rp2179
g6
(g10
S'\xce-pA'
p2180
tp2181
Rp2182
tp2183
s(g4
I140
tp2184
(g6
(g10
S'\x00\x00\x00\x00'
p2185
tp2186
Rp2187
g6
(g10
S'*[\x90A'
p2188
tp2189
Rp2190
tp2191
s(g20
I38
tp2192
(g6
(g10
S'\x00\x00\x00\x00'
p2193
tp2194
Rp2195
g6
(g10
S'\xd6\x18x@'
p2196
tp2197
Rp2198
tp2199
s(g29
I42
tp2200
(g6
(g10
S'\x00\x00\x00\x00'
p2201
tp2202
Rp2203
g6
(g10
S'f\xd1jA'
p2204
tp2205
Rp2206
tp2207
s(g29
I161
tp2208
(g6
(g10
S'\x00\x00\x00\x00'
p2209
tp2210
Rp2211
g6
(g10
S'\xae\x08rA'
p2212
tp2213
Rp2214
tp2215
s(g4
I81
tp2216
(g6
(g10
S'u\xe8">'
p2217
tp2218
Rp2219
g6
(g10
S'\x10\xae\xd6A'
p2220
tp2221
Rp2222
tp2223
s(g4
I166
tp2224
(g6
(g10
S'\x00\x00\x00\x00'
p2225
tp2226
Rp2227
g6
(g10
S'\x86\xb2SA'
p2228
tp2229
Rp2230
tp2231
s(g29
I91
tp2232
(g6
(g10
S'\x00\x00\x00\x00'
p2233
tp2234
Rp2235
g6
(g10
S'\x08O\xf2A'
p2236
tp2237
Rp2238
tp2239
s(g4
I75
tp2240
(g6
(g10
S'\x00\x00\x00\x00'
p2241
tp2242
Rp2243
g6
(g10
S'\xd5\x17\xcfA'
p2244
tp2245
Rp2246
tp2247
s(g4
I192
tp2248
(g6
(g10
S'\x00\x00\x00\x00'
p2249
tp2250
Rp2251
g6
(g10
S'\xd2]]A'
p2252
tp2253
Rp2254
tp2255
s(g20
I93
tp2256
(g6
(g10
S'\x00\x00\x00\x00'
p2257
tp2258
Rp2259
g6
(g10
S'\xf6\x83\xaeA'
p2260
tp2261
Rp2262
tp2263
s(g29
I125
tp2264
(g6
(g10
S'\x00\x00\x00\x00'
p2265
tp2266
Rp2267
g6
(g10
S'-l\xf1A'
p2268
tp2269
Rp2270
tp2271
s(g4
I101
tp2272
(g6
(g10
S'\x00\x00\x00\x00'
p2273
tp2274
Rp2275
g6
(g10
S'\x0b\xd2\xc7A'
p2276
tp2277
Rp2278
tp2279
s(g20
I99
tp2280
(g6
(g10
S'\x00\x00\x00\x00'
p2281
tp2282
Rp2283
g6
(g10
S'$BDA'
p2284
tp2285
Rp2286
tp2287
s(g29
I23
tp2288
(g6
(g10
S'\x00\x00\x00\x00'
p2289
tp2290
Rp2291
g6
(g10
S'\x7f\xc5\x00B'
p2292
tp2293
Rp2294
tp2295
s(g4
I20
tp2296
(g6
(g10
S'\x00\x00\x00\x00'
p2297
tp2298
Rp2299
g6
(g10
S'\x1bb\xa4A'
p2300
tp2301
Rp2302
tp2303
s(g20
I158
tp2304
(g6
(g10
S'\x00\x00\x00\x00'
p2305
tp2306
Rp2307
g6
(g10
S'w\x0cPA'
p2308
tp2309
Rp2310
tp2311
s(g20
I9
tp2312
(g6
(g10
S'\x00\x00\x00\x00'
p2313
tp2314
Rp2315
g6
(g10
S'\xb1\x06\xedA'
p2316
tp2317
Rp2318
tp2319
s(g29
I9
tp2320
(g6
(g10
S'\x00\x00\x00\x00'
p2321
tp2322
Rp2323
g6
(g10
S'\xaekFA'
p2324
tp2325
Rp2326
tp2327
s(g29
I128
tp2328
(g6
(g10
S'\x00\x00\x00\x00'
p2329
tp2330
Rp2331
g6
(g10
S'2\xb2*A'
p2332
tp2333
Rp2334
tp2335
s(g4
I14
tp2336
(g6
(g10
S'\x00\x00\x00\x00'
p2337
tp2338
Rp2339
g6
(g10
S'\x8d\xef\x89A'
p2340
tp2341
Rp2342
tp2343
s(g20
I164
tp2344
(g6
(g10
S'\x00\x00\x00\x00'
p2345
tp2346
Rp2347
g6
(g10
S'\xd7\xad\xa5A'
p2348
tp2349
Rp2350
tp2351
s(g4
I135
tp2352
(g6
(g10
S'\x00\x00\x00\x00'
p2353
tp2354
Rp2355
g6
(g10
S'\x94|/A'
p2356
tp2357
Rp2358
tp2359
s(g20
I47
tp2360
(g6
(g10
S'\x00\x00\x00\x00'
p2361
tp2362
Rp2363
g6
(g10
S'cv\xdfA'
p2364
tp2365
Rp2366
tp2367
s(g29
I35
tp2368
(g6
(g10
S'\x00\x00\x00\x00'
p2369
tp2370
Rp2371
g6
(g10
S'~~oA'
p2372
tp2373
Rp2374
tp2375
s(g29
I186
tp2376
(g6
(g10
S'\x00\x00\x00\x00'
p2377
tp2378
Rp2379
g6
(g10
S'\xe1\x00\xafA'
p2380
tp2381
Rp2382
tp2383
s(g4
I40
tp2384
(g6
(g10
S'\x00\x00\x00\x00'
p2385
tp2386
Rp2387
g6
(g10
S'mN\xa3@'
p2388
tp2389
Rp2390
tp2391
s(g4
I161
tp2392
(g6
(g10
S'\x00\x00\x00\x00'
p2393
tp2394
Rp2395
g6
(g10
S'r\xf5\xd8A'
p2396
tp2397
Rp2398
tp2399
s(g20
I53
tp2400
(g6
(g10
S'\x00\x00\x00\x00'
p2401
tp2402
Rp2403
g6
(g10
S'\n;\xdfA'
p2404
tp2405
Rp2406
tp2407
s(g29
I92
tp2408
(g6
(g10
S'\x00\x00\x00\x00'
p2409
tp2410
Rp2411
g6
(g10
S'\x03C\xabA'
p2412
tp2413
Rp2414
tp2415
s(g4
I66
tp2416
(g6
(g10
S'\x00\x00\x00\x00'
p2417
tp2418
Rp2419
g6
(g10
S'\xb2\xba0A'
p2420
tp2421
Rp2422
tp2423
s(g374
I1
tp2424
(g6
(g10
S'\x00\x00\x00\x00'
p2425
tp2426
Rp2427
g6
(g10
S'\x00\x00\x80?'
p2428
tp2429
Rp2430
tp2431
s(g20
I66
tp2432
(g6
(g10
S'\x00\x00\x00\x00'
p2433
tp2434
Rp2435
g6
(g10
S'\xe1\x96,A'
p2436
tp2437
Rp2438
tp2439
s(g29
I118
tp2440
(g6
(g10
S'\x00\x00\x00\x00'
p2441
tp2442
Rp2443
g6
(g10
S'\x80\x82[A'
p2444
tp2445
Rp2446
tp2447
s(g4
I124
tp2448
(g6
(g10
S'\x00\x00\x00\x00'
p2449
tp2450
Rp2451
g6
(g10
S'\x9b\x90rA'
p2452
tp2453
Rp2454
tp2455
s(g20
I104
tp2456
(g6
(g10
S'\x00\x00\x00\x00'
p2457
tp2458
Rp2459
g6
(g10
S'\x00\xd2\xd4@'
p2460
tp2461
Rp2462
tp2463
s(g29
I104
tp2464
(g6
(g10
S'\x00\x00\x00\x00'
p2465
tp2466
Rp2467
g6
(g10
S'\x01h\xa4A'
p2468
tp2469
Rp2470
tp2471
s(g20
I135
tp2472
(g6
(g10
S'\x00\x00\x00\x00'
p2473
tp2474
Rp2475
g6
(g10
S'\xfbo\xdb@'
p2476
tp2477
Rp2478
tp2479
s(g20
I14
tp2480
(g6
(g10
S'\x00\x00\x00\x00'
p2481
tp2482
Rp2483
g6
(g10
S'"\xd9\x9f@'
p2484
tp2485
Rp2486
tp2487
s(g29
I2
tp2488
(g6
(g10
S'\x00\x00\x00\x00'
p2489
tp2490
Rp2491
g6
(g10
S'\xdf\xcf\x89A'
p2492
tp2493
Rp2494
tp2495
s(g29
I153
tp2496
(g6
(g10
S'\x00\x00\x00\x00'
p2497
tp2498
Rp2499
g6
(g10
S'm\xb7,A'
p2500
tp2501
Rp2502
tp2503
s(g4
I9
tp2504
(g6
(g10
S'\x00\x00\x00\x00'
p2505
tp2506
Rp2507
g6
(g10
S'\x9e\xea\x08A'
p2508
tp2509
Rp2510
tp2511
s(g20
I173
tp2512
(g6
(g10
S'\x00\x00\x00\x00'
p2513
tp2514
Rp2515
g6
(g10
S'f\xc8\xa8A'
p2516
tp2517
Rp2518
tp2519
s(g4
I158
tp2520
(g6
(g10
S'\x00\x00\x00\x00'
p2521
tp2522
Rp2523
g6
(g10
S'\x8f\xbd\xe1A'
p2524
tp2525
Rp2526
tp2527
s(g20
I20
tp2528
(g6
(g10
S'\x00\x00\x00\x00'
p2529
tp2530
Rp2531
g6
(g10
S'9\xa5\xebA'
p2532
tp2533
Rp2534
tp2535
s(g29
I36
tp2536
(g6
(g10
S'\x00\x00\x00\x00'
p2537
tp2538
Rp2539
g6
(g10
S'\xb3b\tA'
p2540
tp2541
Rp2542
tp2543
s(g29
I179
tp2544
(g6
(g10
S'\x00\x00\x00\x00'
p2545
tp2546
Rp2547
g6
(g10
S'\xc0\x9d(A'
p2548
tp2549
Rp2550
tp2551
s(g4
I35
tp2552
(g6
(g10
S'\x00\x00\x00\x00'
p2553
tp2554
Rp2555
g6
(g10
S'\xf2rFA'
p2556
tp2557
Rp2558
tp2559
s(g20
I179
tp2560
(g6
(g10
S'\x00\x00\x00\x00'
p2561
tp2562
Rp2563
g6
(g10
S'\xd2\x12\x98A'
p2564
tp2565
Rp2566
tp2567
s(g4
I184
tp2568
(g6
(g10
S'\x00\x00\x00\x00'
p2569
tp2570
Rp2571
g6
(g10
S'\xdc\x15RA'
p2572
tp2573
Rp2574
tp2575
s(g20
I58
tp2576
(g6
(g10
S'\x00\x00\x00\x00'
p2577
tp2578
Rp2579
g6
(g10
S'\x00V;@'
p2580
tp2581
Rp2582
tp2583
s(g29
I85
tp2584
(g6
(g10
S'\x00\x00\x00\x00'
p2585
tp2586
Rp2587
g6
(g10
S'\xe7\xc4\x87A'
p2588
tp2589
Rp2590
tp2591
s(g4
I93
tp2592
(g6
(g10
S'\x00\x00\x00\x00'
p2593
tp2594
Rp2595
g6
(g10
S'7&\x0bA'
p2596
tp2597
Rp2598
tp2599
s(g20
I192
tp2600
(g6
(g10
S'\x00\x00\x00\x00'
p2601
tp2602
Rp2603
g6
(g10
S'\x15_\x94A'
p2604
tp2605
Rp2606
tp2607
s(g20
I75
tp2608
(g6
(g10
S'\x00\x00\x00\x00'
p2609
tp2610
Rp2611
g6
(g10
S'\xd3\x1c3A'
p2612
tp2613
Rp2614
tp2615
s(g29
I79
tp2616
(g6
(g10
S'\x00\x00\x00\x00'
p2617
tp2618
Rp2619
g6
(g10
S'#\xeakA'
p2620
tp2621
Rp2622
tp2623
s(g4
I119
tp2624
(g6
(g10
S'\x00\x00\x00\x00'
p2625
tp2626
Rp2627
g6
(g10
S'1S\x86A'
p2628
tp2629
Rp2630
tp2631
s(g29
I198
tp2632
(g6
(g10
S'\x00\x00\x00\x00'
p2633
tp2634
Rp2635
g6
(g10
S'8\xd7\xacA'
p2636
tp2637
Rp2638
tp2639
s(g20
I81
tp2640
(g6
(g10
S'\x00\x00\x00\x00'
p2641
tp2642
Rp2643
g6
(g10
S'}0bA'
p2644
tp2645
Rp2646
tp2647
s(g29
I97
tp2648
(g6
(g10
S'\x00\x00\x00\x00'
p2649
tp2650
Rp2651
g6
(g10
S'\xb9\x01\x80A'
p2652
tp2653
Rp2654
tp2655
s(g20
I140
tp2656
(g6
(g10
S'\x00\x00\x00\x00'
p2657
tp2658
Rp2659
g6
(g10
S'\xa5\xe0\xe1?'
p2660
tp2661
Rp2662
tp2663
s(g20
I119
tp2664
(g6
(g10
S'\x00\x00\x00\x00'
p2665
tp2666
Rp2667
g6
(g10
S'\x83\xf9!A'
p2668
tp2669
Rp2670
tp2671
s(g29
I27
tp2672
(g6
(g10
S'\x00\x00\x00\x00'
p2673
tp2674
Rp2675
g6
(g10
S'u1IA'
p2676
tp2677
Rp2678
tp2679
s(g29
I146
tp2680
(g6
(g10
S'\x00\x00\x00\x00'
p2681
tp2682
Rp2683
g6
(g10
S'\xe8\x8eyA'
p2684
tp2685
Rp2686
tp2687
s(g4
I0
tp2688
(g6
(g10
S'\x00\x00\x00\x00'
p2689
tp2690
Rp2691
g6
(g10
S'fx\x82A'
p2692
tp2693
Rp2694
tp2695
s(g20
I146
tp2696
(g6
(g10
S'\x00\x00\x00\x00'
p2697
tp2698
Rp2699
g6
(g10
S'\x16\xa4EA'
p2700
tp2701
Rp2702
tp2703
s(g4
I153
tp2704
(g6
(g10
S'\x00\x00\x00\x00'
p2705
tp2706
Rp2707
g6
(g10
S'F\xc8zA'
p2708
tp2709
Rp2710
tp2711
s(g20
I29
tp2712
(g6
(g10
S'\x00\x00\x00\x00'
p2713
tp2714
Rp2715
g6
(g10
S'\xdaZ\xd7@'
p2716
tp2717
Rp2718
tp2719
s(g29
I61
tp2720
(g6
(g10
S'\x00\x00\x00\x00'
p2721
tp2722
Rp2723
g6
(g10
S'u+0A'
p2724
tp2725
Rp2726
tp2727
s(g29
I180
tp2728
(g6
(g10
S'\x00\x00\x00\x00'
p2729
tp2730
Rp2731
g6
(g10
S'^\xea%A'
p2732
tp2733
Rp2734
tp2735
s(g4
I58
tp2736
(g6
(g10
S'\x00\x00\x00\x00'
p2737
tp2738
Rp2739
g6
(g10
S'\xd0\xb0\xa4A'
p2740
tp2741
Rp2742
tp2743
s(g20
I184
tp2744
(g6
(g10
S'\x00\x00\x00\x00'
p2745
tp2746
Rp2747
g6
(g10
S'\xea\x16&A'
p2748
tp2749
Rp2750
tp2751
s(g4
I179
tp2752
(g6
(g10
S'\x00\x00\x00\x00'
p2753
tp2754
Rp2755
g6
(g10
S'\xcd\xca\tA'
p2756
tp2757
Rp2758
tp2759
s(g20
I35
tp2760
(g6
(g10
S'\x00\x00\x00\x00'
p2761
tp2762
Rp2763
g6
(g10
S']\x91\xc6@'
p2764
tp2765
Rp2766
tp2767
s(g29
I174
tp2768
(g6
(g10
S'\x00\x00\x00\x00'
p2769
tp2770
Rp2771
g6
(g10
S'\x187\x9c@'
p2772
tp2773
Rp2774
tp2775
s(g4
I84
tp2776
(g6
(g10
S'\x00\x00\x00\x00'
p2777
tp2778
Rp2779
g6
(g10
S'\x86_\xacA'
p2780
tp2781
Rp2782
tp2783
s(g4
I173
tp2784
(g6
(g10
S'\x00\x00\x00\x00'
p2785
tp2786
Rp2787
g6
(g10
S'\xd1!PA'
p2788
tp2789
Rp2790
tp2791
s(g29
I64
tp2792
(g6
(g10
S'\x00\x00\x00\x00'
p2793
tp2794
Rp2795
g6
(g10
S'-\xe5nA'
p2796
tp2797
Rp2798
tp2799
s(g4
I78
tp2800
(g6
(g10
S'\x00\x00\x00\x00'
p2801
tp2802
Rp2803
g6
(g10
S'\xc5\xba\x84A'
p2804
tp2805
Rp2806
tp2807
s(g4
I199
tp2808
(g6
(g10
S'\x00\x00\x00\x00'
p2809
tp2810
Rp2811
g6
(g10
S'\xac9\xdf@'
p2812
tp2813
Rp2814
tp2815
s(g20
I86
tp2816
(g6
(g10
S'\x00\x00\x00\x00'
p2817
tp2818
Rp2819
g6
(g10
S'IvR@'
p2820
tp2821
Rp2822
tp2823
s(g29
I122
tp2824
(g6
(g10
S'\x00\x00\x00\x00'
p2825
tp2826
Rp2827
g6
(g10
S'\xbd\x12\x93A'
p2828
tp2829
Rp2830
tp2831
s(g4
I104
tp2832
(g6
(g10
S'\x00\x00\x00\x00'
p2833
tp2834
Rp2835
g6
(g10
S'\xda\xd6"A'
p2836
tp2837
Rp2838
tp2839
s(g20
I124
tp2840
(g6
(g10
S'\x00\x00\x00\x00'
p2841
tp2842
Rp2843
g6
(g10
S'\xec5\x88A'
p2844
tp2845
Rp2846
tp2847
s(g29
I28
tp2848
(g6
(g10
S'\x00\x00\x00\x00'
p2849
tp2850
Rp2851
g6
(g10
S'9\x88\x91A'
p2852
tp2853
Rp2854
tp2855
s(g4
I27
tp2856
(g6
(g10
S'\x00\x00\x00\x00'
p2857
tp2858
Rp2859
g6
(g10
S'\x1c\x00\x80A'
p2860
tp2861
Rp2862
tp2863
s(g20
I155
tp2864
(g6
(g10
S'\x00\x00\x00\x00'
p2865
tp2866
Rp2867
g6
(g10
S'\xa4u\x04A'
p2868
tp2869
Rp2870
tp2871
s(g4
I144
tp2872
(g6
(g10
S'\x00\x00\x00\x00'
p2873
tp2874
Rp2875
g6
(g10
S'.\xe9D@'
p2876
tp2877
Rp2878
tp2879
s(g20
I2
tp2880
(g6
(g10
S'\x00\x00\x00\x00'
p2881
tp2882
Rp2883
g6
(g10
S'\x9b\xde\x02A'
p2884
tp2885
Rp2886
tp2887
s(g29
I54
tp2888
(g6
(g10
S'\x00\x00\x00\x00'
p2889
tp2890
Rp2891
g6
(g10
S'F6\xa1A'
p2892
tp2893
Rp2894
tp2895
s(g29
I141
tp2896
(g6
(g10
S'\x00\x00\x00\x00'
p2897
tp2898
Rp2899
g6
(g10
S'\xb7\x9a\x8aA'
p2900
tp2901
Rp2902
tp2903
s(g4
I53
tp2904
(g6
(g10
S'\x00\x00\x00\x00'
p2905
tp2906
Rp2907
g6
(g10
S'$\x1c\tA'
p2908
tp2909
Rp2910
tp2911
s(g20
I161
tp2912
(g6
(g10
S'\x00\x00\x00\x00'
p2913
tp2914
Rp2915
g6
(g10
S'\x87\x0c]A'
p2916
tp2917
Rp2918
tp2919
s(g4
I138
tp2920
(g6
(g10
S'\x00\x00\x00\x00'
p2921
tp2922
Rp2923
g6
(g10
S'\xd0.\xc9A'
p2924
tp2925
Rp2926
tp2927
s(g20
I40
tp2928
(g6
(g10
S'\x00\x00\x00\x00'
p2929
tp2930
Rp2931
g6
(g10
S'4\xba\xfb@'
p2932
tp2933
Rp2934
tp2935
s(g29
I40
tp2936
(g6
(g10
S'\x00\x00\x00\x00'
p2937
tp2938
Rp2939
g6
(g10
S'v\xcb,A'
p2940
tp2941
Rp2942
tp2943
s(g29
I167
tp2944
(g6
(g10
S'\x00\x00\x00\x00'
p2945
tp2946
Rp2947
g6
(g10
S'\xcfA\x94A'
p2948
tp2949
Rp2950
tp2951
s(g4
I47
tp2952
(g6
(g10
S'\x00\x00\x00\x00'
p2953
tp2954
Rp2955
g6
(g10
S'&u\xc0@'
p2956
tp2957
Rp2958
tp2959
s(g4
I164
tp2960
(g6
(g10
S'\x00\x00\x00\x00'
p2961
tp2962
Rp2963
g6
(g10
S'\xe6Y\xeb@'
p2964
tp2965
Rp2966
tp2967
s(g29
I89
tp2968
(g6
(g10
S'\x00\x00\x00\x00'
p2969
tp2970
Rp2971
g6
(g10
S'%\x99\x7fA'
p2972
tp2973
Rp2974
tp2975
s(g4
I73
tp2976
(g6
(g10
S'\x00\x00\x00\x00'
p2977
tp2978
Rp2979
g6
(g10
S'u\xae\x07A'
p2980
tp2981
Rp2982
tp2983
s(g20
I95
tp2984
(g6
(g10
S'\x00\x00\x00\x00'
p2985
tp2986
Rp2987
g6
(g10
S'\xe0\xb7VA'
p2988
tp2989
Rp2990
tp2991
s(g29
I115
tp2992
(g6
(g10
S'\x00\x00\x00\x00'
p2993
tp2994
Rp2995
g6
(g10
S'\x06\xa7\x85A'
p2996
tp2997
Rp2998
tp2999
s(g4
I99
tp3000
(g6
(g10
S'\x00\x00\x00\x00'
p3001
tp3002
Rp3003
g6
(g10
S'7]IA'
p3004
tp3005
Rp3006
tp3007
s(g20
I101
tp3008
(g6
(g10
S'\x00\x00\x00\x00'
p3009
tp3010
Rp3011
g6
(g10
S'\xb6\x92\xa3@'
p3012
tp3013
Rp3014
tp3015
s(g29
I21
tp3016
(g6
(g10
S'\x00\x00\x00\x00'
p3017
tp3018
Rp3019
g6
(g10
S'\x83stA'
p3020
tp3021
Rp3022
tp3023
s(g4
I18
tp3024
(g6
(g10
S'\x00\x00\x00\x00'
p3025
tp3026
Rp3027
g6
(g10
S'\x16\x9d\xebA'
p3028
tp3029
Rp3030
tp3031
s(g20
I128
tp3032
(g6
(g10
S'\x00\x00\x00\x00'
p3033
tp3034
Rp3035
g6
(g10
S'\xc3\xa9\xaeA'
p3036
tp3037
Rp3038
tp3039
s(g20
I11
tp3040
(g6
(g10
S'\x00\x00\x00\x00'
p3041
tp3042
Rp3043
g6
(g10
S'I\x93\xee@'
p3044
tp3045
Rp3046
tp3047
s(g29
I15
tp3048
(g6
(g10
S'\x00\x00\x00\x00'
p3049
tp3050
Rp3051
g6
(g10
S'%\x1c\x88A'
p3052
tp3053
Rp3054
tp3055
s(g29
I134
tp3056
(g6
(g10
S'\x00\x00\x00\x00'
p3057
tp3058
Rp3059
g6
(g10
S'\xe1BJA'
p3060
tp3061
Rp3062
tp3063
s(g4
I12
tp3064
(g6
(g10
S'\x00\x00\x00\x00'
p3065
tp3066
Rp3067
g6
(g10
S'\xde\xfd\x05A'
p3068
tp3069
Rp3070
tp3071
s(g20
I166
tp3072
(g6
(g10
S'\x00\x00\x00\x00'
p3073
tp3074
Rp3075
g6
(g10
S'S\xcc1A'
p3076
tp3077
Rp3078
tp3079
s(g4
I133
tp3080
(g6
(g10
S'\x00\x00\x00\x00'
p3081
tp3082
Rp3083
g6
(g10
S'\x07d\xa1A'
p3084
tp3085
Rp3086
tp3087
s(g20
I17
tp3088
(g6
(g10
S'\x00\x00\x00\x00'
p3089
tp3090
Rp3091
g6
(g10
S'_\xf8\x11B'
p3092
tp3093
Rp3094
tp3095
s(g29
I33
tp3096
(g6
(g10
S'\x00\x00\x00\x00'
p3097
tp3098
Rp3099
g6
(g10
S'\xac\xf3HA'
p3100
tp3101
Rp3102
tp3103
s(g29
I184
tp3104
(g6
(g10
S'\x00\x00\x00\x00'
p3105
tp3106
Rp3107
g6
(g10
S"'\xdd\xa8A"
p3108
tp3109
Rp3110
tp3111
s(g4
I38
tp3112
(g6
(g10
S'\x00\x00\x00\x00'
p3113
tp3114
Rp3115
g6
(g10
S'.zcA'
p3116
tp3117
Rp3118
tp3119
s(g4
I191
tp3120
(g6
(g10
S'\x00\x00\x00\x00'
p3121
tp3122
Rp3123
g6
(g10
S'\x84\xff\xeaA'
p3124
tp3125
Rp3126
tp3127
s(g20
I55
tp3128
(g6
(g10
S'\x00\x00\x00\x00'
p3129
tp3130
Rp3131
g6
(g10
S'u\xd1\x07A'
p3132
tp3133
Rp3134
tp3135
s(g29
I82
tp3136
(g6
(g10
S'\x00\x00\x00\x00'
p3137
tp3138
Rp3139
g6
(g10
S'\x8b\x98\xbcA'
p3140
tp3141
Rp3142
tp3143
s(g4
I64
tp3144
(g6
(g10
S'\x00\x00\x00\x00'
p3145
tp3146
Rp3147
g6
(g10
S'\xfd8;A'
p3148
tp3149
Rp3150
tp3151
s(g20
I68
tp3152
(g6
(g10
S'\x00\x00\x00\x00'
p3153
tp3154
Rp3155
g6
(g10
S'\x0b\x8aQA'
p3156
tp3157
Rp3158
tp3159
s(g29
I116
tp3160
(g6
(g10
S'\x00\x00\x00\x00'
p3161
tp3162
Rp3163
g6
(g10
S'\xcc1\xb2A'
p3164
tp3165
Rp3166
tp3167
s(g4
I122
tp3168
(g6
(g10
S'\x00\x00\x00\x00'
p3169
tp3170
Rp3171
g6
(g10
S'+\xfb\xdb@'
p3172
tp3173
Rp3174
tp3175
s(g29
I195
tp3176
(g6
(g10
S'\x00\x00\x00\x00'
p3177
tp3178
Rp3179
g6
(g10
S'\xcaa\x95A'
p3180
tp3181
Rp3182
tp3183
s(g20
I106
tp3184
(g6
(g10
S'\x00\x00\x00\x00'
p3185
tp3186
Rp3187
g6
(g10
S'\xb5\x8d\rB'
p3188
tp3189
Rp3190
tp3191
s(g29
I110
tp3192
(g6
(g10
S'\x00\x00\x00\x00'
p3193
tp3194
Rp3195
g6
(g10
S'R\x97\x8dA'
p3196
tp3197
Rp3198
tp3199
s(g20
I137
tp3200
(g6
(g10
S'\x00\x00\x00\x00'
p3201
tp3202
Rp3203
g6
(g10
S'wX\xb9A'
p3204
tp3205
Rp3206
tp3207
s(g20
I112
tp3208
(g6
(g10
S'\x00\x00\x00\x00'
p3209
tp3210
Rp3211
g6
(g10
S'\x8f\xf6%A'
p3212
tp3213
Rp3214
tp3215
s(g29
I0
tp3216
(g6
(g10
S'\x00\x00\x00\x00'
p3217
tp3218
Rp3219
g6
(g10
S'\xea\x04\x8aA'
p3220
tp3221
Rp3222
tp3223
s(g29
I159
tp3224
(g6
(g10
S'\x00\x00\x00\x00'
p3225
tp3226
Rp3227
g6
(g10
S'<\x04(A'
p3228
tp3229
Rp3230
tp3231
s(g4
I7
tp3232
(g6
(g10
S'\x00\x00\x00\x00'
p3233
tp3234
Rp3235
g6
(g10
S'I\xbel@'
p3236
tp3237
Rp3238
tp3239
s(g20
I175
tp3240
(g6
(g10
S'\x00\x00\x00\x00'
p3241
tp3242
Rp3243
g6
(g10
S'\xfb\x0f%A'
p3244
tp3245
Rp3246
tp3247
s(g4
I156
tp3248
(g6
(g10
S'\x00\x00\x00\x00'
p3249
tp3250
Rp3251
g6
(g10
S'{\x1d7A'
p3252
tp3253
Rp3254
tp3255
s(g20
I22
tp3256
(g6
(g10
S'\x00\x00\x00\x00'
p3257
tp3258
Rp3259
g6
(g10
S')4\xd0@'
p3260
tp3261
Rp3262
tp3263
s(g29
I58
tp3264
(g6
(g10
S'\x00\x00\x00\x00'
p3265
tp3266
Rp3267
g6
(g10
S'\xc1l\x86A'
p3268
tp3269
Rp3270
tp3271
s(g29
I177
tp3272
(g6
(g10
S'\x00\x00\x00\x00'
p3273
tp3274
Rp3275
g6
(g10
S'w\x80\x97A'
p3276
tp3277
Rp3278
tp3279
s(g4
I33
tp3280
(g6
(g10
S'\x00\x00\x00\x00'
p3281
tp3282
Rp3283
g6
(g10
S'\x9a\xa0EA'
p3284
tp3285
Rp3286
tp3287
s(g20
I181
tp3288
(g6
(g10
S'\x00\x00\x00\x00'
p3289
tp3290
Rp3291
g6
(g10
S"\x8f?'A"
p3292
tp3293
Rp3294
tp3295
s(g4
I182
tp3296
(g6
(g10
S'\x00\x00\x00\x00'
p3297
tp3298
Rp3299
g6
(g10
S'\xbc\xa6\x95A'
p3300
tp3301
Rp3302
tp3303
s(g20
I60
tp3304
(g6
(g10
S'\x00\x00\x00\x00'
p3305
tp3306
Rp3307
g6
(g10
S'\xfd\x01\xb3@'
p3308
tp3309
Rp3310
tp3311
s(g29
I171
tp3312
(g6
(g10
S'\x00\x00\x00\x00'
p3313
tp3314
Rp3315
g6
(g10
S'"\xbe\xb3A'
p3316
tp3317
Rp3318
tp3319
s(g4
I91
tp3320
(g6
(g10
S'\x00\x00\x00\x00'
p3321
tp3322
Rp3323
g6
(g10
S'\xb6\xce\x98A'
p3324
tp3325
Rp3326
tp3327
s(g20
I194
tp3328
(g6
(g10
S'\x00\x00\x00\x00'
p3329
tp3330
Rp3331
g6
(g10
S'G\xe6HA'
p3332
tp3333
Rp3334
tp3335
s(g20
I77
tp3336
(g6
(g10
S'\x00\x00\x00\x00'
p3337
tp3338
Rp3339
g6
(g10
S'\x90E\xe4@'
p3340
tp3341
Rp3342
tp3343
s(g29
I77
tp3344
(g6
(g10
S'\x00\x00\x00\x00'
p3345
tp3346
Rp3347
g6
(g10
S'0-\xb2A'
p3348
tp3349
Rp3350
tp3351
s(g4
I117
tp3352
(g6
(g10
S'\x00\x00\x00\x00'
p3353
tp3354
Rp3355
g6
(g10
S'\x86\x12\xedA'
p3356
tp3357
Rp3358
tp3359
s(g29
I196
tp3360
(g6
(g10
S'\x00\x00\x00\x00'
p3361
tp3362
Rp3363
g6
(g10
S'\r[lA'
p3364
tp3365
Rp3366
tp3367
s(g20
I83
tp3368
(g6
(g10
S'\x00\x00\x00\x00'
p3369
tp3370
Rp3371
g6
(g10
S'\xff;\xe3@'
p3372
tp3373
Rp3374
tp3375
s(g29
I103
tp3376
(g6
(g10
S'\x00\x00\x00\x00'
p3377
tp3378
Rp3379
g6
(g10
S'\x8ak^A'
p3380
tp3381
Rp3382
tp3383
s(g4
I111
tp3384
(g6
(g10
S'\x00\x00\x00\x00'
p3385
tp3386
Rp3387
g6
(g10
S'\xe3\r\x16A'
p3388
tp3389
Rp3390
tp3391
s(g20
I142
tp3392
(g6
(g10
S'\x00\x00\x00\x00'
p3393
tp3394
Rp3395
g6
(g10
S'\xc7\xeazA'
p3396
tp3397
Rp3398
tp3399
s(g20
I121
tp3400
(g6
(g10
S'\x00\x00\x00\x00'
p3401
tp3402
Rp3403
g6
(g10
S'6\xaa\x82?'
p3404
tp3405
Rp3406
tp3407
s(g29
I25
tp3408
(g6
(g10
S'\x00\x00\x00\x00'
p3409
tp3410
Rp3411
g6
(g10
S'\xd4\xb8kA'
p3412
tp3413
Rp3414
tp3415
s(g29
I144
tp3416
(g6
(g10
S'\x00\x00\x00\x00'
p3417
tp3418
Rp3419
g6
(g10
S'\x99E\xaeA'
p3420
tp3421
Rp3422
tp3423
s(g4
I30
tp3424
(g6
(g10
S'\x00\x00\x00\x00'
p3425
tp3426
Rp3427
g6
(g10
S'\xab<^A'
p3428
tp3429
Rp3430
tp3431
s(g20
I148
tp3432
(g6
(g10
S'\x00\x00\x00\x00'
p3433
tp3434
Rp3435
g6
(g10
S'Z\xee`A'
p3436
tp3437
Rp3438
tp3439
s(g4
I151
tp3440
(g6
(g10
S'\x00\x00\x00\x00'
p3441
tp3442
Rp3443
g6
(g10
S'j\x8d6A'
p3444
tp3445
Rp3446
tp3447
s(g20
I31
tp3448
(g6
(g10
S'\x00\x00\x00\x00'
p3449
tp3450
Rp3451
g6
(g10
S'\x12\x1c\x98A'
p3452
tp3453
Rp3454
tp3455
s(g29
I51
tp3456
(g6
(g10
S'\x00\x00\x00\x00'
p3457
tp3458
Rp3459
g6
(g10
S'KuaA'
p3460
tp3461
Rp3462
tp3463
s(g29
I138
tp3464
(g6
(g10
S'\x00\x00\x00\x00'
p3465
tp3466
Rp3467
g6
(g10
S'\\\xa6\xbdA'
p3468
tp3469
Rp3470
tp3471
s(g4
I56
tp3472
(g6
(g10
S'\x00\x00\x00\x00'
p3473
tp3474
Rp3475
g6
(g10
S'\x08\x11WA'
p3476
tp3477
Rp3478
tp3479
s(g20
I186
tp3480
(g6
(g10
S'\x00\x00\x00\x00'
p3481
tp3482
Rp3483
g6
(g10
S'h\x8c\x85A'
p3484
tp3485
Rp3486
tp3487
s(g4
I177
tp3488
(g6
(g10
S'\x00\x00\x00\x00'
p3489
tp3490
Rp3491
g6
(g10
S'\xabT\xa0A'
p3492
tp3493
Rp3494
tp3495
s(g20
I37
tp3496
(g6
(g10
S'\x00\x00\x00\x00'
p3497
tp3498
Rp3499
g6
(g10
S'-\xc0(@'
p3500
tp3501
Rp3502
tp3503
s(g29
I172
tp3504
(g6
(g10
S'\x00\x00\x00\x00'
p3505
tp3506
Rp3507
g6
(g10
S'\xb4\xb0\x15B'
p3508
tp3509
Rp3510
tp3511
s(g4
I82
tp3512
(g6
(g10
S'\x00\x00\x00\x00'
p3513
tp3514
Rp3515
g6
(g10
S'\xb7\xccUA'
p3516
tp3517
Rp3518
tp3519
s(g4
I171
tp3520
(g6
(g10
S'\x00\x00\x00\x00'
p3521
tp3522
Rp3523
g6
(g10
S'\xb7\xe0|A'
p3524
tp3525
Rp3526
tp3527
s(g29
I70
tp3528
(g6
(g10
S'\x00\x00\x00\x00'
p3529
tp3530
Rp3531
g6
(g10
S'\xf0\xd0PA'
p3532
tp3533
Rp3534
tp3535
s(g4
I76
tp3536
(g6
(g10
S'\x00\x00\x00\x00'
p3537
tp3538
Rp3539
g6
(g10
S'Qe\xe3A'
p3540
tp3541
Rp3542
tp3543
s(g4
I197
tp3544
(g6
(g10
S'\x00\x00\x00\x00'
p3545
tp3546
Rp3547
g6
(g10
S'\xb5O\xc4@'
p3548
tp3549
Rp3550
tp3551
s(g20
I88
tp3552
(g6
(g10
S'\x00\x00\x00\x00'
p3553
tp3554
Rp3555
g6
(g10
S'\xc9^@A'
p3556
tp3557
Rp3558
tp3559
s(g29
I120
tp3560
(g6
(g10
S'\x00\x00\x00\x00'
p3561
tp3562
Rp3563
g6
(g10
S'\x88\x149A'
p3564
tp3565
Rp3566
tp3567
s(g4
I102
tp3568
(g6
(g10
S'\x00\x00\x00\x00'
p3569
tp3570
Rp3571
g6
(g10
S'\xa9\xb9\xdcA'
p3572
tp3573
Rp3574
tp3575
s(g20
I126
tp3576
(g6
(g10
S'\x00\x00\x00\x00'
p3577
tp3578
Rp3579
g6
(g10
S'\xe4\xd5\xb9A'
p3580
tp3581
Rp3582
tp3583
s(g29
I18
tp3584
(g6
(g10
S'\x00\x00\x00\x00'
p3585
tp3586
Rp3587
g6
(g10
S'\xe0Z@A'
p3588
tp3589
Rp3590
tp3591
s(g4
I25
tp3592
(g6
(g10
S'\x00\x00\x00\x00'
p3593
tp3594
Rp3595
g6
(g10
S'\x0cb\xe5@'
p3596
tp3597
Rp3598
tp3599
s(g20
I157
tp3600
(g6
(g10
S'\x00\x00\x00\x00'
p3601
tp3602
Rp3603
g6
(g10
S'\xa5<\x80A'
p3604
tp3605
Rp3606
tp3607
s(g20
I4
tp3608
(g6
(g10
S'\x00\x00\x00\x00'
p3609
tp3610
Rp3611
g6
(g10
S'\x93\x17\x16A'
p3612
tp3613
Rp3614
tp3615
s(g29
I52
tp3616
(g6
(g10
S'\x00\x00\x00\x00'
p3617
tp3618
Rp3619
g6
(g10
S'C\xad\x12B'
p3620
tp3621
Rp3622
tp3623
s(g29
I131
tp3624
(g6
(g10
S'\x00\x00\x00\x00'
p3625
tp3626
Rp3627
g6
(g10
S'\xb6\xb8\xa1A'
p3628
tp3629
Rp3630
tp3631
s(g4
I51
tp3632
(g6
(g10
S'\x00\x00\x00\x00'
p3633
tp3634
Rp3635
g6
(g10
S'}m#A'
p3636
tp3637
Rp3638
tp3639
s(g20
I163
tp3640
(g6
(g10
S'\x00\x00\x00\x00'
p3641
tp3642
Rp3643
g6
(g10
S'||\xd2A'
p3644
tp3645
Rp3646
tp3647
s(g4
I136
tp3648
(g6
(g10
S'\x00\x00\x00\x00'
p3649
tp3650
Rp3651
g6
(g10
S'\x03\x97\x8cA'
p3652
tp3653
Rp3654
tp3655
s(g20
I42
tp3656
(g6
(g10
S'\x00\x00\x00\x00'
p3657
tp3658
Rp3659
g6
(g10
S'\x88\xe8KA'
p3660
tp3661
Rp3662
tp3663
s(g29
I46
tp3664
(g6
(g10
S'\x00\x00\x00\x00'
p3665
tp3666
Rp3667
g6
(g10
S'fZMA'
p3668
tp3669
Rp3670
tp3671
s(g29
I165
tp3672
(g6
(g10
S'\x00\x00\x00\x00'
p3673
tp3674
Rp3675
g6
(g10
S'\xec\t\x98A'
p3676
tp3677
Rp3678
tp3679
s(g4
I45
tp3680
(g6
(g10
S'\x00\x00\x00\x00'
p3681
tp3682
Rp3683
g6
(g10
S'\x82\xf3\xd8@'
p3684
tp3685
Rp3686
tp3687
s(g4
I162
tp3688
(g6
(g10
S'\x00\x00\x00\x00'
p3689
tp3690
Rp3691
g6
(g10
S'\x1a\xce:A'
p3692
tp3693
Rp3694
tp3695
s(g20
I48
tp3696
(g6
(g10
S'\x00\x00\x00\x00'
p3697
tp3698
Rp3699
g6
(g10
S'\xc3,\xb1@'
p3700
tp3701
Rp3702
tp3703
s(g29
I95
tp3704
(g6
(g10
S'\x00\x00\x00\x00'
p3705
tp3706
Rp3707
g6
(g10
S'RQ\x8cA'
p3708
tp3709
Rp3710
tp3711
s(g4
I71
tp3712
(g6
(g10
S'\x00\x00\x00\x00'
p3713
tp3714
Rp3715
g6
(g10
S'\xecC\xc3@'
p3716
tp3717
Rp3718
tp3719
s(g20
I65
tp3720
(g6
(g10
S'\x00\x00\x00\x00'
p3721
tp3722
Rp3723
g6
(g10
S'\xf7\xf8M?'
p3724
tp3725
Rp3726
tp3727
s(g29
I113
tp3728
(g6
(g10
S'\x00\x00\x00\x00'
p3729
tp3730
Rp3731
g6
(g10
S'\x94\x19\x89A'
p3732
tp3733
Rp3734
tp3735
s(g4
I97
tp3736
(g6
(g10
S'\x00\x00\x00\x00'
p3737
tp3738
Rp3739
g6
(g10
S'\xebv5A'
p3740
tp3741
Rp3742
tp3743
s(g20
I103
tp3744
(g6
(g10
S'\x00\x00\x00\x00'
p3745
tp3746
Rp3747
g6
(g10
S'\x94\x86NA'
p3748
tp3749
Rp3750
tp3751
s(g29
I107
tp3752
(g6
(g10
S'\x00\x00\x00\x00'
p3753
tp3754
Rp3755
g6
(g10
S'.\x1b\x8fA'
p3756
tp3757
Rp3758
tp3759
s(g4
I16
tp3760
(g6
(g10
S'\x00\x00\x00\x00'
p3761
tp3762
Rp3763
g6
(g10
S'8\x15bA'
p3764
tp3765
Rp3766
tp3767
s(g20
I130
tp3768
(g6
(g10
S'\x00\x00\x00\x00'
p3769
tp3770
Rp3771
g6
(g10
S'\x0c7\xfeA'
p3772
tp3773
Rp3774
tp3775
s(g20
I13
tp3776
(g6
(g10
S'\x00\x00\x00\x00'
p3777
tp3778
Rp3779
g6
(g10
S'\xd2E~A'
p3780
tp3781
Rp3782
tp3783
s(g29
I13
tp3784
(g6
(g10
S'\x00\x00\x00\x00'
p3785
tp3786
Rp3787
g6
(g10
S'\x00<\xb0A'
p3788
tp3789
Rp3790
tp3791
s(g29
I132
tp3792
(g6
(g10
S'\x00\x00\x00\x00'
p3793
tp3794
Rp3795
g6
(g10
S'\x13\xa2IA'
p3796
tp3797
Rp3798
tp3799
s(g4
I10
tp3800
(g6
(g10
S'\x00\x00\x00\x00'
p3801
tp3802
Rp3803
g6
(g10
S'MH\x9d@'
p3804
tp3805
Rp3806
tp3807
s(g20
I168
tp3808
(g6
(g10
S'\x00\x00\x00\x00'
p3809
tp3810
Rp3811
g6
(g10
S'\x10v\xb9@'
p3812
tp3813
Rp3814
tp3815
s(g4
I131
tp3816
(g6
(g10
S'\x00\x00\x00\x00'
p3817
tp3818
Rp3819
g6
(g10
S'\x8d\x00.@'
p3820
tp3821
Rp3822
tp3823
s(g20
I19
tp3824
(g6
(g10
S'\x00\x00\x00\x00'
p3825
tp3826
Rp3827
g6
(g10
S'\x9a\x07\xae@'
p3828
tp3829
Rp3830
tp3831
s(g29
I39
tp3832
(g6
(g10
S'\x00\x00\x00\x00'
p3833
tp3834
Rp3835
g6
(g10
S'\xad\x8dwA'
p3836
tp3837
Rp3838
tp3839
s(g29
I190
tp3840
(g6
(g10
S'\x00\x00\x00\x00'
p3841
tp3842
Rp3843
g6
(g10
S'sp\xa2A'
p3844
tp3845
Rp3846
tp3847
s(g4
I36
tp3848
(g6
(g10
S'\x00\x00\x00\x00'
p3849
tp3850
Rp3851
g6
(g10
S'\xb9\x80\x9eA'
p3852
tp3853
Rp3854
tp3855
s(g4
I189
tp3856
(g6
(g10
S'\x00\x00\x00\x00'
p3857
tp3858
Rp3859
g6
(g10
S'\\`\x93A'
p3860
tp3861
Rp3862
tp3863
s(g20
I57
tp3864
(g6
(g10
S'\x00\x00\x00\x00'
p3865
tp3866
Rp3867
g6
(g10
S'!\x8d\x01B'
p3868
tp3869
Rp3870
tp3871
s(g29
I80
tp3872
(g6
(g10
S'\x00\x00\x00\x00'
p3873
tp3874
Rp3875
g6
(g10
S'\xa2,eA'
p3876
tp3877
Rp3878
tp3879
s(g4
I94
tp3880
(g6
(g10
S'\x00\x00\x00\x00'
p3881
tp3882
Rp3883
g6
(g10
S'9\xa6\x8dA'
p3884
tp3885
Rp3886
tp3887
s(g20
I70
tp3888
(g6
(g10
S'\x00\x00\x00\x00'
p3889
tp3890
Rp3891
g6
(g10
S'k\x1aGA'
p3892
tp3893
Rp3894
tp3895
s(g29
I74
tp3896
(g6
(g10
S'\x00\x00\x00\x00'
p3897
tp3898
Rp3899
g6
(g10
S'\xcb\x82;A'
p3900
tp3901
Rp3902
tp3903
s(g4
I120
tp3904
(g6
(g10
S'\x00\x00\x00\x00'
p3905
tp3906
Rp3907
g6
(g10
S'N!\x99A'
p3908
tp3909
Rp3910
tp3911
s(g29
I193
tp3912
(g6
(g10
S'\x00\x00\x00\x00'
p3913
tp3914
Rp3915
g6
(g10
S'n\t\xa6A'
p3916
tp3917
Rp3918
tp3919
s(g20
I108
tp3920
(g6
(g10
S'\x00\x00\x00\x00'
p3921
tp3922
Rp3923
g6
(g10
S'Q\xc1\x80A'
p3924
tp3925
Rp3926
tp3927
s(g29
I108
tp3928
(g6
(g10
S'\x00\x00\x00\x00'
p3929
tp3930
Rp3931
g6
(g10
S'\x03W\x9fA'
p3932
tp3933
Rp3934
tp3935
s(g20
I139
tp3936
(g6
(g10
S'\x00\x00\x00\x00'
p3937
tp3938
Rp3939
g6
(g10
S'3\xbf\xa8A'
p3940
tp3941
Rp3942
tp3943
s(g20
I114
tp3944
(g6
(g10
S'\x00\x00\x00\x00'
p3945
tp3946
Rp3947
g6
(g10
S'\xb3\xa8\x8d@'
p3948
tp3949
Rp3950
tp3951
s(g29
I6
tp3952
(g6
(g10
S'\x00\x00\x00\x00'
p3953
tp3954
Rp3955
g6
(g10
S'%\xc6\x9bA'
p3956
tp3957
Rp3958
tp3959
s(g29
I157
tp3960
(g6
(g10
S'\x00\x00\x00\x00'
p3961
tp3962
Rp3963
g6
(g10
S'B\xb6\x08B'
p3964
tp3965
Rp3966
tp3967
s(g4
I5
tp3968
(g6
(g10
S'\x00\x00\x00\x00'
p3969
tp3970
Rp3971
g6
(g10
S'\x99\xcf\xaf@'
p3972
tp3973
Rp3974
tp3975
s(g20
I145
tp3976
(g6
(g10
S'\x00\x00\x00\x00'
p3977
tp3978
Rp3979
g6
(g10
S'\xb4\\\xae?'
p3980
tp3981
Rp3982
tp3983
s(g4
I154
tp3984
(g6
(g10
S'\x00\x00\x00\x00'
p3985
tp3986
Rp3987
g6
(g10
S'\x04\x95=A'
p3988
tp3989
Rp3990
tp3991
s(g20
I24
tp3992
(g6
(g10
S'\x00\x00\x00\x00'
p3993
tp3994
Rp3995
g6
(g10
S'3-^A'
p3996
tp3997
Rp3998
tp3999
s(g29
I56
tp4000
(g6
(g10
S'\x00\x00\x00\x00'
p4001
tp4002
Rp4003
g6
(g10
S'\x0e\x9c_A'
p4004
tp4005
Rp4006
tp4007
s(g29
I183
tp4008
(g6
(g10
S'\x00\x00\x00\x00'
p4009
tp4010
Rp4011
g6
(g10
S'\xd8\x04\xbfA'
p4012
tp4013
Rp4014
tp4015
s(g4
I63
tp4016
(g6
(g10
S'\x00\x00\x00\x00'
p4017
tp4018
Rp4019
g6
(g10
S'&\x9b\xcc@'
p4020
tp4021
Rp4022
tp4023
s(g20
I183
tp4024
(g6
(g10
S'\x00\x00\x00\x00'
p4025
tp4026
Rp4027
g6
(g10
S'\xed\xc1\xafA'
p4028
tp4029
Rp4030
tp4031
s(g4
I180
tp4032
(g6
(g10
S'\x00\x00\x00\x00'
p4033
tp4034
Rp4035
g6
(g10
S'7~\x03A'
p4036
tp4037
Rp4038
tp4039
s(g20
I62
tp4040
(g6
(g10
S'\x00\x00\x00\x00'
p4041
tp4042
Rp4043
g6
(g10
S'jL\xaf@'
p4044
tp4045
Rp4046
tp4047
s(g29
I169
tp4048
(g6
(g10
S'\x00\x00\x00\x00'
p4049
tp4050
Rp4051
g6
(g10
S'\x13\xf4>A'
p4052
tp4053
Rp4054
tp4055
s(g4
I89
tp4056
(g6
(g10
S'\x00\x00\x00\x00'
p4057
tp4058
Rp4059
g6
(g10
S'\xe2\xa4\x9cA'
p4060
tp4061
Rp4062
tp4063
s(g4
I174
tp4064
(g6
(g10
S'\x00\x00\x00\x00'
p4065
tp4066
Rp4067
g6
(g10
S'\x1b\xceJA'
p4068
tp4069
Rp4070
tp4071
s(g20
I196
tp4072
(g6
(g10
S'\x00\x00\x00\x00'
p4073
tp4074
Rp4075
g6
(g10
S'\xfd\x8f\x0fA'
p4076
tp4077
Rp4078
tp4079
s(g20
I79
tp4080
(g6
(g10
S'\x00\x00\x00\x00'
p4081
tp4082
Rp4083
g6
(g10
S'\x00E`A'
p4084
tp4085
Rp4086
tp4087
s(g29
I67
tp4088
(g6
(g10
S'\x00\x00\x00\x00'
p4089
tp4090
Rp4091
g6
(g10
S'\xec\xc0zA'
p4092
tp4093
Rp4094
tp4095
s(g4
I115
tp4096
(g6
(g10
S'\x00\x00\x00\x00'
p4097
tp4098
Rp4099
g6
(g10
S'_P\xdb@'
p4100
tp4101
Rp4102
tp4103
s(g20
I85
tp4104
(g6
(g10
S'\x00\x00\x00\x00'
p4105
tp4106
Rp4107
g6
(g10
S'\x0f\xbe\xcdA'
p4108
tp4109
Rp4110
tp4111
s(g29
I101
tp4112
(g6
(g10
S'\x00\x00\x00\x00'
p4113
tp4114
Rp4115
g6
(g10
S'\x88\x05\x97A'
p4116
tp4117
Rp4118
tp4119
s(g4
I109
tp4120
(g6
(g10
S'\x00\x00\x00\x00'
p4121
tp4122
Rp4123
g6
(g10
S'\xb1&\x94A'
p4124
tp4125
Rp4126
tp4127
s(g20
I123
tp4128
(g6
(g10
S'\x00\x00\x00\x00'
p4129
tp4130
Rp4131
g6
(g10
S'\x97ByA'
p4132
tp4133
Rp4134
tp4135
s(g29
I31
tp4136
(g6
(g10
S'\x00\x00\x00\x00'
p4137
tp4138
Rp4139
g6
(g10
S'Q\xa01A'
p4140
tp4141
Rp4142
tp4143
s(g29
I150
tp4144
(g6
(g10
S'\x00\x00\x00\x00'
p4145
tp4146
Rp4147
g6
(g10
S'\x92\xb6\x96A'
p4148
tp4149
Rp4150
tp4151
s(g4
I28
tp4152
(g6
(g10
S'\x00\x00\x00\x00'
p4153
tp4154
Rp4155
g6
(g10
S'\x91\xdc\x03B'
p4156
tp4157
Rp4158
tp4159
s(g20
I150
tp4160
(g6
(g10
S'\x00\x00\x00\x00'
p4161
tp4162
Rp4163
g6
(g10
S'\xc0\xd1\x1a?'
p4164
tp4165
Rp4166
tp4167
s(g4
I149
tp4168
(g6
(g10
S'\x00\x00\x00\x00'
p4169
tp4170
Rp4171
g6
(g10
S'\xc4B\x82A'
p4172
tp4173
Rp4174
tp4175
s(g20
I1
tp4176
(g6
(g10
S'\x00\x00\x00\x00'
p4177
tp4178
Rp4179
g6
(g10
S'C\xf5\x05A'
p4180
tp4181
Rp4182
tp4183
s(g29
I49
tp4184
(g6
(g10
S'\x00\x00\x00\x00'
p4185
tp4186
Rp4187
g6
(g10
S'K\xc1^A'
p4188
tp4189
Rp4190
tp4191
s(g29
I136
tp4192
(g6
(g10
S'\x00\x00\x00\x00'
p4193
tp4194
Rp4195
g6
(g10
S'v,\x80A'
p4196
tp4197
Rp4198
tp4199
s(g4
I54
tp4200
(g6
(g10
S'\x00\x00\x00\x00'
p4201
tp4202
Rp4203
g6
(g10
S'^\xe0XA'
p4204
tp4205
Rp4206
tp4207
s(g20
I188
tp4208
(g6
(g10
S'\x00\x00\x00\x00'
p4209
tp4210
Rp4211
g6
(g10
S'\x08\xfb\xc6@'
p4212
tp4213
Rp4214
tp4215
s(g4
I143
tp4216
(g6
(g10
S'\x00\x00\x00\x00'
p4217
tp4218
Rp4219
g6
(g10
S'q\x14\xeb@'
p4220
tp4221
Rp4222
tp4223
s(g20
I39
tp4224
(g6
(g10
S'\x00\x00\x00\x00'
p4225
tp4226
Rp4227
g6
(g10
S'n\xf9\x0cA'
p4228
tp4229
Rp4230
tp4231
s(g29
I43
tp4232
(g6
(g10
S'\x00\x00\x00\x00'
p4233
tp4234
Rp4235
g6
(g10
S'\xe0\x08\xe5A'
p4236
tp4237
Rp4238
tp4239
s(g29
I162
tp4240
(g6
(g10
S'\x00\x00\x00\x00'
p4241
tp4242
Rp4243
g6
(g10
S"'\xa4\\A"
p4244
tp4245
Rp4246
tp4247
s(g4
I80
tp4248
(g6
(g10
S'\x00\x00\x00\x00'
p4249
tp4250
Rp4251
g6
(g10
S'\xb7\xbb\x80A'
p4252
tp4253
Rp4254
tp4255
s(g4
I169
tp4256
(g6
(g10
S'\x00\x00\x00\x00'
p4257
tp4258
Rp4259
g6
(g10
S'\xe0\x9aNA'
p4260
tp4261
Rp4262
tp4263
s(g29
I68
tp4264
(g6
(g10
S'\x00\x00\x00\x00'
p4265
tp4266
Rp4267
g6
(g10
S'QXqA'
p4268
tp4269
Rp4270
tp4271
s(g4
I74
tp4272
(g6
(g10
S'\x00\x00\x00\x00'
p4273
tp4274
Rp4275
g6
(g10
S'\x1c[ A'
p4276
tp4277
Rp4278
tp4279
s(g4
I195
tp4280
(g6
(g10
S'\x00\x00\x00\x00'
p4281
tp4282
Rp4283
g6
(g10
S'\xf8\xbdcA'
p4284
tp4285
Rp4286
tp4287
s(g20
I90
tp4288
(g6
(g10
S'\x00\x00\x00\x00'
p4289
tp4290
Rp4291
g6
(g10
S'48\xda?'
p4292
tp4293
Rp4294
tp4295
s(g29
I126
tp4296
(g6
(g10
S'\x00\x00\x00\x00'
p4297
tp4298
Rp4299
g6
(g10
S'\x1c\x17\x9dA'
p4300
tp4301
Rp4302
tp4303
s(g4
I100
tp4304
(g6
(g10
S'\x00\x00\x00\x00'
p4305
tp4306
Rp4307
g6
(g10
S'5W\xafA'
p4308
tp4309
Rp4310
tp4311
s(g20
I96
tp4312
(g6
(g10
S'\x00\x00\x00\x00'
p4313
tp4314
Rp4315
g6
(g10
S'\xa5\xea\x85A'
p4316
tp4317
Rp4318
tp4319
s(g29
I16
tp4320
(g6
(g10
S'\x00\x00\x00\x00'
p4321
tp4322
Rp4323
g6
(g10
S'\xe5\n}A'
p4324
tp4325
Rp4326
tp4327
s(g4
I23
tp4328
(g6
(g10
S'\x00\x00\x00\x00'
p4329
tp4330
Rp4331
g6
(g10
S'!\xae\xdf@'
p4332
tp4333
Rp4334
tp4335
s(g20
I159
tp4336
(g6
(g10
S'\x00\x00\x00\x00'
p4337
tp4338
Rp4339
g6
(g10
S'\xc6\xbb\x97@'
p4340
tp4341
Rp4342
tp4343
s(g20
I6
tp4344
(g6
(g10
S'\x00\x00\x00\x00'
p4345
tp4346
Rp4347
g6
(g10
S'\xfd\x08\x18?'
p4348
tp4349
Rp4350
tp4351
s(g29
I10
tp4352
(g6
(g10
S'\x00\x00\x00\x00'
p4353
tp4354
Rp4355
g6
(g10
S'\x03c\xddA'
p4356
tp4357
Rp4358
tp4359
s(g29
I129
tp4360
(g6
(g10
S'\x00\x00\x00\x00'
p4361
tp4362
Rp4363
g6
(g10
S'A\xa3\xa8A'
p4364
tp4365
Rp4366
tp4367
s(g4
I49
tp4368
(g6
(g10
S'\x00\x00\x00\x00'
p4369
tp4370
Rp4371
g6
(g10
S'"\'@A'
p4372
tp4373
Rp4374
tp4375
s(g20
I165
tp4376
(g6
(g10
S'\x00\x00\x00\x00'
p4377
tp4378
Rp4379
g6
(g10
S'\xe8\x18\xeb@'
p4380
tp4381
Rp4382
tp4383
s(g4
I134
tp4384
(g6
(g10
S'\x00\x00\x00\x00'
p4385
tp4386
Rp4387
g6
(g10
S'\xabv\x95A'
p4388
tp4389
Rp4390
tp4391
s(g20
I44
tp4392
(g6
(g10
S'\x00\x00\x00\x00'
p4393
tp4394
Rp4395
g6
(g10
S'\x06#YA'
p4396
tp4397
Rp4398
tp4399
s(g29
I44
tp4400
(g6
(g10
S'\x00\x00\x00\x00'
p4401
tp4402
Rp4403
g6
(g10
S'e\x89qA'
p4404
tp4405
Rp4406
tp4407
s(g29
I187
tp4408
(g6
(g10
S'\x00\x00\x00\x00'
p4409
tp4410
Rp4411
g6
(g10
S'\xcc\xca\x85A'
p4412
tp4413
Rp4414
tp4415
s(g4
I43
tp4416
(g6
(g10
S'\x00\x00\x00\x00'
p4417
tp4418
Rp4419
g6
(g10
S'^.]A'
p4420
tp4421
Rp4422
tp4423
s(g4
I160
tp4424
(g6
(g10
S'\x00\x00\x00\x00'
p4425
tp4426
Rp4427
g6
(g10
S'_\x93oA'
p4428
tp4429
Rp4430
tp4431
s(g20
I50
tp4432
(g6
(g10
S'\x00\x00\x00\x00'
p4433
tp4434
Rp4435
g6
(g10
S'C\x12\x80A'
p4436
tp4437
Rp4438
tp4439
s(g29
I93
tp4440
(g6
(g10
S'\x00\x00\x00\x00'
p4441
tp4442
Rp4443
g6
(g10
S'I#PA'
p4444
tp4445
Rp4446
tp4447
s(g4
I69
tp4448
(g6
(g10
S'\x00\x00\x00\x00'
p4449
tp4450
Rp4451
g6
(g10
S'\x8f\xda\x8fA'
p4452
tp4453
Rp4454
tp4455
s(g20
I67
tp4456
(g6
(g10
S'\x00\x00\x00\x00'
p4457
tp4458
Rp4459
g6
(g10
S'4\xcd\xaf?'
p4460
tp4461
Rp4462
tp4463
s(g29
I119
tp4464
(g6
(g10
S'\x00\x00\x00\x00'
p4465
tp4466
Rp4467
g6
(g10
S'\xdb\xfc\x83A'
p4468
tp4469
Rp4470
tp4471
s(g4
I127
tp4472
(g6
(g10
S'\x00\x00\x00\x00'
p4473
tp4474
Rp4475
g6
(g10
S'i\xa5\xa1A'
p4476
tp4477
Rp4478
tp4479
s(g20
I105
tp4480
(g6
(g10
S'\x00\x00\x00\x00'
p4481
tp4482
Rp4483
g6
(g10
S'\xa8\xab@A'
p4484
tp4485
Rp4486
tp4487
s(g29
I105
tp4488
(g6
(g10
S'\x00\x00\x00\x00'
p4489
tp4490
Rp4491
g6
(g10
S'\xa65\xbfA'
p4492
tp4493
Rp4494
tp4495
s(g20
I132
tp4496
(g6
(g10
S'\x00\x00\x00\x00'
p4497
tp4498
Rp4499
g6
(g10
S'\xd0,\xcaA'
p4500
tp4501
Rp4502
tp4503
s(g20
I15
tp4504
(g6
(g10
S'\x00\x00\x00\x00'
p4505
tp4506
Rp4507
g6
(g10
S'\x0f!=A'
p4508
tp4509
Rp4510
tp4511
s(g29
I3
tp4512
(g6
(g10
S'\x00\x00\x00\x00'
p4513
tp4514
Rp4515
g6
(g10
S'\xc4\xb50A'
p4516
tp4517
Rp4518
tp4519
s(g29
I154
tp4520
(g6
(g10
S'\x00\x00\x00\x00'
p4521
tp4522
Rp4523
g6
(g10
S'\x17\xa7\xa0A'
p4524
tp4525
Rp4526
tp4527
s(g4
I8
tp4528
(g6
(g10
S'\x00\x00\x00\x00'
p4529
tp4530
Rp4531
g6
(g10
S'\x02\x8b?A'
p4532
tp4533
Rp4534
tp4535
s(g20
I170
tp4536
(g6
(g10
S'\x00\x00\x00\x00'
p4537
tp4538
Rp4539
g6
(g10
S'\x93\x7f\xe7A'
p4540
tp4541
Rp4542
tp4543
s(g4
I129
tp4544
(g6
(g10
S'\x00\x00\x00\x00'
p4545
tp4546
Rp4547
g6
(g10
S'\\6\x90A'
p4548
tp4549
Rp4550
tp4551
s(g20
I21
tp4552
(g6
(g10
S'\x00\x00\x00\x00'
p4553
tp4554
Rp4555
g6
(g10
S'\x81J\x10A'
p4556
tp4557
Rp4558
tp4559
s(g29
I37
tp4560
(g6
(g10
S'\x00\x00\x00\x00'
p4561
tp4562
Rp4563
g6
(g10
S'Mc\xa9A'
p4564
tp4565
Rp4566
tp4567
s(g29
I188
tp4568
(g6
(g10
S'\x00\x00\x00\x00'
p4569
tp4570
Rp4571
g6
(g10
S':\xd5\xa1A'
p4572
tp4573
Rp4574
tp4575
s(g4
I34
tp4576
(g6
(g10
S'\x00\x00\x00\x00'
p4577
tp4578
Rp4579
g6
(g10
S'$h\tA'
p4580
tp4581
Rp4582
tp4583
s(g20
I176
tp4584
(g6
(g10
S'\x00\x00\x00\x00'
p4585
tp4586
Rp4587
g6
(g10
S'\x1f\x1a\xefA'
p4588
tp4589
Rp4590
tp4591
s(g4
I187
tp4592
(g6
(g10
S'\x00\x00\x00\x00'
p4593
tp4594
Rp4595
g6
(g10
S'\x98\xae\xb2A'
p4596
tp4597
Rp4598
tp4599
s(g20
I59
tp4600
(g6
(g10
S'\x00\x00\x00\x00'
p4601
tp4602
Rp4603
g6
(g10
S'@B\xb5@'
p4604
tp4605
Rp4606
tp4607
s(g1831
I1
tp4608
(g6
(g10
S'+\xb0\xd4\xc2'
p4609
tp4610
Rp4611
g6
(g10
S'Lo\x13B'
p4612
tp4613
Rp4614
tp4615
s(g29
I86
tp4616
(g6
(g10
S'\x00\x00\x00\x00'
p4617
tp4618
Rp4619
g6
(g10
S'\xa3`rA'
p4620
tp4621
Rp4622
tp4623
s(g4
I92
tp4624
(g6
(g10
S'\x00\x00\x00\x00'
p4625
tp4626
Rp4627
g6
(g10
S'\xcb\x8e\xbe@'
p4628
tp4629
Rp4630
tp4631
s(g20
I193
tp4632
(g6
(g10
S'\x00\x00\x00\x00'
p4633
tp4634
Rp4635
g6
(g10
S'\xd2d\xd0A'
p4636
tp4637
Rp4638
tp4639
s(g20
I72
tp4640
(g6
(g10
S'\x00\x00\x00\x00'
p4641
tp4642
Rp4643
g6
(g10
S'\xf1\x8c3A'
p4644
tp4645
Rp4646
tp4647
s(g29
I72
tp4648
(g6
(g10
S'\x00\x00\x00\x00'
p4649
tp4650
Rp4651
g6
(g10
S';g\xbcA'
p4652
tp4653
Rp4654
tp4655
s(g4
I118
tp4656
(g6
(g10
S'\x00\x00\x00\x00'
p4657
tp4658
Rp4659
g6
(g10
S'Y\xac\x83@'
p4660
tp4661
Rp4662
tp4663
s(g29
I199
tp4664
(g6
(g10
S'\x00\x00\x00\x00'
p4665
tp4666
Rp4667
g6
(g10
S'\x8b\xabvA'
p4668
tp4669
Rp4670
tp4671
s(g20
I110
tp4672
(g6
(g10
S'\x00\x00\x00\x00'
p4673
tp4674
Rp4675
g6
(g10
S'0\xc5\xd2A'
p4676
tp4677
Rp4678
tp4679
s(g29
I98
tp4680
(g6
(g10
S'\x00\x00\x00\x00'
p4681
tp4682
Rp4683
g6
(g10
S'\x1f\xd2AA'
p4684
tp4685
Rp4686
tp4687
s(g20
I141
tp4688
(g6
(g10
S'\x00\x00\x00\x00'
p4689
tp4690
Rp4691
g6
(g10
S'\xe4\xee\xa7@'
p4692
tp4693
Rp4694
tp4695
s(g20
I116
tp4696
(g6
(g10
S'\x00\x00\x00\x00'
p4697
tp4698
Rp4699
g6
(g10
S'\xdbw\x03B'
p4700
tp4701
Rp4702
tp4703
s(g29
I4
tp4704
(g6
(g10
S'\x00\x00\x00\x00'
p4705
tp4706
Rp4707
g6
(g10
S'9\xaflA'
p4708
tp4709
Rp4710
tp4711
s(g29
I147
tp4712
(g6
(g10
S'\x00\x00\x00\x00'
p4713
tp4714
Rp4715
g6
(g10
S'`\xe4\xd4A'
p4716
tp4717
Rp4718
tp4719
s(g4
I3
tp4720
(g6
(g10
S'\x00\x00\x00\x00'
p4721
tp4722
Rp4723
g6
(g10
S'\xf7\x08\xdb@'
p4724
tp4725
Rp4726
tp4727
s(g20
I147
tp4728
(g6
(g10
S'\x00\x00\x00\x00'
p4729
tp4730
Rp4731
g6
(g10
S'.}\xbe@'
p4732
tp4733
Rp4734
tp4735
s(g4
I152
tp4736
(g6
(g10
S'\x00\x00\x00\x00'
p4737
tp4738
Rp4739
g6
(g10
S'\xccx\xa6A'
p4740
tp4741
Rp4742
tp4743
s(g20
I26
tp4744
(g6
(g10
S'\x00\x00\x00\x00'
p4745
tp4746
Rp4747
g6
(g10
S'\xbf\xa6\xa1A'
p4748
tp4749
Rp4750
tp4751
s(g29
I62
tp4752
(g6
(g10
S'\x00\x00\x00\x00'
p4753
tp4754
Rp4755
g6
(g10
S'v\xeetA'
p4756
tp4757
Rp4758
tp4759
s(g29
I181
tp4760
(g6
(g10
S'\x00\x00\x00\x00'
p4761
tp4762
Rp4763
g6
(g10
S'\xe8\x0b\x8bA'
p4764
tp4765
Rp4766
tp4767
s(g4
I61
tp4768
(g6
(g10
S'\x00\x00\x00\x00'
p4769
tp4770
Rp4771
g6
(g10
S'\xf9\xdc\xa0@'
p4772
tp4773
Rp4774
tp4775
s(g20
I185
tp4776
(g6
(g10
S'\x00\x00\x00\x00'
p4777
tp4778
Rp4779
g6
(g10
S'Kf\x9a@'
p4780
tp4781
Rp4782
tp4783
s(g4
I178
tp4784
(g6
(g10
S'\x00\x00\x00\x00'
p4785
tp4786
Rp4787
g6
(g10
S'7\x0f\x10A'
p4788
tp4789
Rp4790
tp4791
s(g20
I32
tp4792
(g6
(g10
S'\x00\x00\x00\x00'
p4793
tp4794
Rp4795
g6
(g10
S'j\xc4\x0cB'
p4796
tp4797
Rp4798
tp4799
s(g29
I175
tp4800
(g6
(g10
S'\x00\x00\x00\x00'
p4801
tp4802
Rp4803
g6
(g10
S'\x02\x84\x87A'
p4804
tp4805
Rp4806
tp4807
s(g4
I87
tp4808
(g6
(g10
S'\x00\x00\x00\x00'
p4809
tp4810
Rp4811
g6
(g10
S'1qbA'
p4812
tp4813
Rp4814
tp4815
s(g4
I172
tp4816
(g6
(g10
S'\x00\x00\x00\x00'
p4817
tp4818
Rp4819
g6
(g10
S'\xa7\xe6\xf5@'
p4820
tp4821
Rp4822
tp4823
s(g20
I198
tp4824
(g6
(g10
S'\x00\x00\x00\x00'
p4825
tp4826
Rp4827
g6
(g10
S'\x11\xfb\x16?'
p4828
tp4829
Rp4830
tp4831
s(g29
I65
tp4832
(g6
(g10
S'\x00\x00\x00\x00'
p4833
tp4834
Rp4835
g6
(g10
S'\xb3&OA'
p4836
tp4837
Rp4838
tp4839
s(g4
I113
tp4840
(g6
(g10
S'\x00\x00\x00\x00'
p4841
tp4842
Rp4843
g6
(g10
S'IT<A'
p4844
tp4845
Rp4846
tp4847
s.