ccollections
defaultdict
p0
(c__builtin__
bool
p1
tp2
Rp3
(S'fc2'
p4
I198
tp5
(cnumpy.core.multiarray
scalar
p6
(cnumpy
dtype
p7
(S'f4'
p8
I0
I1
tp9
Rp10
(I3
S'<'
p11
NNNI-1
I-1
I0
tp12
bS'\x00\x00\x00\x00'
p13
tp14
Rp15
g6
(g10
S'\x05\xd1bA'
p16
tp17
Rp18
tp19
s(S'fc3'
p20
I87
tp21
(g6
(g10
S'\x00\x00\x00\x00'
p22
tp23
Rp24
g6
(g10
S'\xe2\x94\x9c@'
p25
tp26
Rp27
tp28
s(S'fc4'
p29
I111
tp30
(g6
(g10
S'\x00\x00\x00\x00'
p31
tp32
Rp33
g6
(g10
S'\xa6\x05\xd2@'
p34
tp35
Rp36
tp37
s(S'fc1'
p38
I123
tp39
(g6
(g10
S'\x00\x00\x00\x00'
p40
tp41
Rp42
g6
(g10
S'7\\\xd6A'
p43
tp44
Rp45
tp46
s(g4
I107
tp47
(g6
(g10
S'\x00\x00\x00\x00'
p48
tp49
Rp50
g6
(g10
S'NA-A'
p51
tp52
Rp53
tp54
s(g20
I125
tp55
(g6
(g10
S'\x00\x00\x00\x00'
p56
tp57
Rp58
g6
(g10
S'\xf5U9@'
p59
tp60
Rp61
tp62
s(g29
I117
tp63
(g6
(g10
S'\x00\x00\x00\x00'
p64
tp65
Rp66
g6
(g10
S'\xcf\xa6\x8bA'
p67
tp68
Rp69
tp70
s(g38
I29
tp71
(g6
(g10
S'\x00\x00\x00\x00'
p72
tp73
Rp74
g6
(g10
S'\xe7\xce\xb6A'
p75
tp76
Rp77
tp78
s(g38
I148
tp79
(g6
(g10
S'\x00\x00\x00\x00'
p80
tp81
Rp82
g6
(g10
S'm\xf8pA'
p83
tp84
Rp85
tp86
s(g4
I26
tp87
(g6
(g10
S'\x00\x00\x00\x00'
p88
tp89
Rp90
g6
(g10
S'\x0e\x00d?'
p91
tp92
Rp93
tp94
s(g20
I152
tp95
(g6
(g10
S'\x00\x00\x00\x00'
p96
tp97
Rp98
g6
(g10
S'v\xefhA'
p99
tp100
Rp101
tp102
s(g4
I147
tp103
(g6
(g10
S'\x00\x00\x00\x00'
p104
tp105
Rp106
g6
(g10
S'c\xb4\xb3A'
p107
tp108
Rp109
tp110
s(g20
I3
tp111
(g6
(g10
S'\x00\x00\x00\x00'
p112
tp113
Rp114
g6
(g10
S'n"\x1b@'
p115
tp116
Rp117
tp118
s(g29
I147
tp119
(g6
(g10
S'\x00\x00\x00\x00'
p120
tp121
Rp122
g6
(g10
S'\xb5\x1fv>'
p123
tp124
Rp125
tp126
s(g38
I55
tp127
(g6
(g10
S'\x00\x00\x00\x00'
p128
tp129
Rp130
g6
(g10
S'r\xdc3A'
p131
tp132
Rp133
tp134
s(g29
I4
tp135
(g6
(g10
S'\x00\x00\x00\x00'
p136
tp137
Rp138
g6
(g10
S'\xde#\xec@'
p139
tp140
Rp141
tp142
s(g38
I142
tp143
(g6
(g10
S'\x00\x00\x00\x00'
p144
tp145
Rp146
g6
(g10
S'\x11`\x84A'
p147
tp148
Rp149
tp150
s(g4
I52
tp151
(g6
(g10
S'\x00\x00\x00\x00'
p152
tp153
Rp154
g6
(g10
S'Z\xa29A'
p155
tp156
Rp157
tp158
s(g20
I190
tp159
(g6
(g10
S'\x00\x00\x00\x00'
p160
tp161
Rp162
g6
(g10
S'a\x84\x85A'
p163
tp164
Rp165
tp166
s(g4
I141
tp167
(g6
(g10
S'\x00\x00\x00\x00'
p168
tp169
Rp170
g6
(g10
S'\xf1\xa7q@'
p171
tp172
Rp173
tp174
s(g20
I41
tp175
(g6
(g10
S'\x00\x00\x00\x00'
p176
tp177
Rp178
g6
(g10
S'\xac\xfa\x1eA'
p179
tp180
Rp181
tp182
s(g29
I185
tp183
(g6
(g10
S'\x00\x00\x00\x00'
p184
tp185
Rp186
g6
(g10
S'9K\xbe>'
p187
tp188
Rp189
tp190
s(g38
I41
tp191
(g6
(g10
S'\x00\x00\x00\x00'
p192
tp193
Rp194
g6
(g10
S'xbNA'
p195
tp196
Rp197
tp198
s(g29
I34
tp199
(g6
(g10
S'\x00\x00\x00\x00'
p200
tp201
Rp202
g6
(g10
S'T\x9f\x9aA'
p203
tp204
Rp205
tp206
s(g38
I160
tp207
(g6
(g10
S'\x00\x00\x00\x00'
p208
tp209
Rp210
g6
(g10
S'\xee\xf7@A'
p211
tp212
Rp213
tp214
s(g4
I46
tp215
(g6
(g10
S'\x00\x00\x00\x00'
p216
tp217
Rp218
g6
(g10
S'I\x10\xb7@'
p219
tp220
Rp221
tp222
s(g4
I167
tp223
(g6
(g10
S'\x00\x00\x00\x00'
p224
tp225
Rp226
g6
(g10
S'6\x17\xf2A'
p227
tp228
Rp229
tp230
s(g29
I199
tp231
(g6
(g10
S'\x00\x00\x00\x00'
p232
tp233
Rp234
g6
(g10
S'\xa7\xb9\xbf@'
p235
tp236
Rp237
tp238
s(g29
I72
tp239
(g6
(g10
S'\x00\x00\x00\x00'
p240
tp241
Rp242
g6
(g10
S"\xc86'A"
p243
tp244
Rp245
tp246
s(g38
I90
tp247
(g6
(g10
S'\x00\x00\x00\x00'
p248
tp249
Rp250
g6
(g10
S'\x81fbA'
p251
tp252
Rp253
tp254
s(g4
I72
tp255
(g6
(g10
S'\x00\x00\x00\x00'
p256
tp257
Rp258
g6
(g10
S'\xc1\x8e\x03A'
p259
tp260
Rp261
tp262
s(g4
I193
tp263
(g6
(g10
S'\x00\x00\x00\x00'
p264
tp265
Rp266
g6
(g10
S'\xd6Kx@'
p267
tp268
Rp269
tp270
s(g20
I92
tp271
(g6
(g10
S'\x00\x00\x00\x00'
p272
tp273
Rp274
g6
(g10
S'\x858\xbc@'
p275
tp276
Rp277
tp278
s(g29
I86
tp279
(g6
(g10
S'\x00\x00\x00\x00'
p280
tp281
Rp282
g6
(g10
S'\x8a\xd1\xacA'
p283
tp284
Rp285
tp286
s(g38
I124
tp287
(g6
(g10
S'\x00\x00\x00\x00'
p288
tp289
Rp290
g6
(g10
S'>\xf9,A'
p291
tp292
Rp293
tp294
s(g4
I98
tp295
(g6
(g10
S'\x00\x00\x00\x00'
p296
tp297
Rp298
g6
(g10
S'\xf9\xa8\x90@'
p299
tp300
Rp301
tp302
s(g20
I98
tp303
(g6
(g10
S'\x00\x00\x00\x00'
p304
tp305
Rp306
g6
(g10
S'[\xaedA'
p307
tp308
Rp309
tp310
s(g29
I124
tp311
(g6
(g10
S'\x00\x00\x00\x00'
p312
tp313
Rp314
g6
(g10
S'X\xa8\xea@'
p315
tp316
Rp317
tp318
s(g38
I22
tp319
(g6
(g10
S'\x00\x00\x00\x00'
p320
tp321
Rp322
g6
(g10
S'\xe0\xfd\x03A'
p323
tp324
Rp325
tp326
s(g4
I21
tp327
(g6
(g10
S'\x00\x00\x00\x00'
p328
tp329
Rp330
g6
(g10
S'\x0b\xff\x1dA'
p331
tp332
Rp333
tp334
s(g20
I129
tp335
(g6
(g10
S'\x00\x00\x00\x00'
p336
tp337
Rp338
g6
(g10
S'\xd1\x16\x88A'
p339
tp340
Rp341
tp342
s(g20
I8
tp343
(g6
(g10
S'\x00\x00\x00\x00'
p344
tp345
Rp346
g6
(g10
S'\x8a\xd8FA'
p347
tp348
Rp349
tp350
s(g29
I154
tp351
(g6
(g10
S'\x00\x00\x00\x00'
p352
tp353
Rp354
g6
(g10
S'\xceF\x82A'
p355
tp356
Rp357
tp358
s(g38
I8
tp359
(g6
(g10
S'\x00\x00\x00\x00'
p360
tp361
Rp362
g6
(g10
S'\xb4\xac\x7fA'
p363
tp364
Rp365
tp366
s(g29
I3
tp367
(g6
(g10
S'\x00\x00\x00\x00'
p368
tp369
Rp370
g6
(g10
S'\xa2\xfe\x18A'
p371
tp372
Rp373
tp374
s(g38
I135
tp375
(g6
(g10
S'\x00\x00\x00\x00'
p376
tp377
Rp378
g6
(g10
S'9ZzA'
p379
tp380
Rp381
tp382
s(g4
I15
tp383
(g6
(g10
S'\x00\x00\x00\x00'
p384
tp385
Rp386
g6
(g10
S'\x03\xc9SA'
p387
tp388
Rp389
tp390
s(g20
I167
tp391
(g6
(g10
S'\x00\x00\x00\x00'
p392
tp393
Rp394
g6
(g10
S'\xf9\xf8\xc6@'
p395
tp396
Rp397
tp398
s(g4
I132
tp399
(g6
(g10
S'\x00\x00\x00\x00'
p400
tp401
Rp402
g6
(g10
S'\x87\xeelA'
p403
tp404
Rp405
tp406
s(g20
I46
tp407
(g6
(g10
S'\x00\x00\x00\x00'
p408
tp409
Rp410
g6
(g10
S'Dk\x8a@'
p411
tp412
Rp413
tp414
s(g29
I160
tp415
(g6
(g10
S'\x00\x00\x00\x00'
p416
tp417
Rp418
g6
(g10
S'C\xdc\x1b@'
p419
tp420
Rp421
tp422
s(g38
I34
tp423
(g6
(g10
S'\x00\x00\x00\x00'
p424
tp425
Rp426
g6
(g10
S'\x0c\xbd\xc3A'
p427
tp428
Rp429
tp430
s(g29
I41
tp431
(g6
(g10
S'\x00\x00\x00\x00'
p432
tp433
Rp434
g6
(g10
S'#"\x00@'
p435
tp436
Rp437
tp438
s(g38
I185
tp439
(g6
(g10
S'\x00\x00\x00\x00'
p440
tp441
Rp442
g6
(g10
S'\x912\x89A'
p443
tp444
Rp445
tp446
s(g4
I41
tp447
(g6
(g10
S'\x00\x00\x00\x00'
p448
tp449
Rp450
g6
(g10
S'\xde\xaf\x02A'
p451
tp452
Rp453
tp454
s(g4
I190
tp455
(g6
(g10
S'\x00\x00\x00\x00'
p456
tp457
Rp458
g6
(g10
S'O\xe0\xd0@'
p459
tp460
Rp461
tp462
s(g20
I52
tp463
(g6
(g10
S'\x00\x00\x00\x00'
p464
tp465
Rp466
g6
(g10
S'\x80\xf4\xe7@'
p467
tp468
Rp469
tp470
s(g29
I55
tp471
(g6
(g10
S'\x00\x00\x00\x00'
p472
tp473
Rp474
g6
(g10
S'\x0f\xf8\xc4?'
p475
tp476
Rp477
tp478
s(g38
I83
tp479
(g6
(g10
S'\x00\x00\x00\x00'
p480
tp481
Rp482
g6
(g10
S'pU\xddA'
p483
tp484
Rp485
tp486
s(g4
I67
tp487
(g6
(g10
S'\x00\x00\x00\x00'
p488
tp489
Rp490
g6
(g10
S'm\xee\x07@'
p491
tp492
Rp493
tp494
s(S'predictions'
p495
I0
tp496
(g6
(g10
S'\x00\x00\x00\x00'
p497
tp498
Rp499
g6
(g10
S'\x00\x00\x80?'
p500
tp501
Rp502
tp503
s(g20
I69
tp504
(g6
(g10
S'\x00\x00\x00\x00'
p505
tp506
Rp507
g6
(g10
S'\x80\xd8\x9d@'
p508
tp509
Rp510
tp511
s(g29
I93
tp512
(g6
(g10
S'\x00\x00\x00\x00'
p513
tp514
Rp515
g6
(g10
S'\xd01\xdbA'
p516
tp517
Rp518
tp519
s(g38
I117
tp520
(g6
(g10
S'\x00\x00\x00\x00'
p521
tp522
Rp523
g6
(g10
S'\x9ebnA'
p524
tp525
Rp526
tp527
s(g4
I125
tp528
(g6
(g10
S'\x00\x00\x00\x00'
p529
tp530
Rp531
g6
(g10
S'Q\x0f\x13A'
p532
tp533
Rp534
tp535
s(g20
I107
tp536
(g6
(g10
S'\x00\x00\x00\x00'
p537
tp538
Rp539
g6
(g10
S'\xcb\xa4\x19@'
p540
tp541
Rp542
tp543
s(g29
I123
tp544
(g6
(g10
S'\x00\x00\x00\x00'
p545
tp546
Rp547
g6
(g10
S'O.\xfc@'
p548
tp549
Rp550
tp551
s(g38
I111
tp552
(g6
(g10
S'\x00\x00\x00\x00'
p553
tp554
Rp555
g6
(g10
S'q\n\x8aA'
p556
tp557
Rp558
tp559
s(g20
I134
tp560
(g6
(g10
S'\x00\x00\x00\x00'
p561
tp562
Rp563
g6
(g10
S'\xa9\xb5DA'
p564
tp565
Rp566
tp567
s(g20
I113
tp568
(g6
(g10
S'\x00\x00\x00\x00'
p569
tp570
Rp571
g6
(g10
S'\xaf-\x97@'
p572
tp573
Rp574
tp575
s(g29
I129
tp576
(g6
(g10
S'\x00\x00\x00\x00'
p577
tp578
Rp579
g6
(g10
S'\x01\xfeAA'
p580
tp581
Rp582
tp583
s(g38
I1
tp584
(g6
(g10
S'\x00\x00\x00\x00'
p585
tp586
Rp587
g6
(g10
S'\xcf\x8b\x1dA'
p588
tp589
Rp590
tp591
s(g29
I10
tp592
(g6
(g10
S'\x00\x00\x00\x00'
p593
tp594
Rp595
g6
(g10
S'\t\x16:A'
p596
tp597
Rp598
tp599
s(g38
I152
tp600
(g6
(g10
S'\x00\x00\x00\x00'
p601
tp602
Rp603
g6
(g10
S'\xeb\xb18A'
p604
tp605
Rp606
tp607
s(g4
I6
tp608
(g6
(g10
S'\x00\x00\x00\x00'
p609
tp610
Rp611
g6
(g10
S'\x1f\x95\xb8A'
p612
tp613
Rp614
tp615
s(g20
I172
tp616
(g6
(g10
S'\x00\x00\x00\x00'
p617
tp618
Rp619
g6
(g10
S'T\xfc A'
p620
tp621
Rp622
tp623
s(g4
I159
tp624
(g6
(g10
S'\x00\x00\x00\x00'
p625
tp626
Rp627
g6
(g10
S'\x01\xacfA'
p628
tp629
Rp630
tp631
s(g20
I23
tp632
(g6
(g10
S'\x00\x00\x00\x00'
p633
tp634
Rp635
g6
(g10
S'P\xea$>'
p636
tp637
Rp638
tp639
s(g29
I175
tp640
(g6
(g10
S'\x00\x00\x00\x00'
p641
tp642
Rp643
g6
(g10
S'+p~@'
p644
tp645
Rp646
tp647
s(g38
I59
tp648
(g6
(g10
S'\x00\x00\x00\x00'
p649
tp650
Rp651
g6
(g10
S'Q4\xa2A'
p652
tp653
Rp654
tp655
s(g29
I16
tp656
(g6
(g10
S'\x00\x00\x00\x00'
p657
tp658
Rp659
g6
(g10
S'\xf1u(A'
p660
tp661
Rp662
tp663
s(g38
I178
tp664
(g6
(g10
S'\x00\x00\x00\x00'
p665
tp666
Rp667
g6
(g10
S'\xf5\x02\xddA'
p668
tp669
Rp670
tp671
s(g4
I32
tp672
(g6
(g10
S'\x00\x00\x00\x00'
p673
tp674
Rp675
g6
(g10
S'et6A'
p676
tp677
Rp678
tp679
s(g20
I178
tp680
(g6
(g10
S'\x00\x00\x00\x00'
p681
tp682
Rp683
g6
(g10
S'\xf5k\xe0@'
p684
tp685
Rp686
tp687
s(g4
I185
tp688
(g6
(g10
S'\x00\x00\x00\x00'
p689
tp690
Rp691
g6
(g10
S'\xc3\xdd\x0eA'
p692
tp693
Rp694
tp695
s(g20
I61
tp696
(g6
(g10
S'\x00\x00\x00\x00'
p697
tp698
Rp699
g6
(g10
S'\xe7\x98$A'
p700
tp701
Rp702
tp703
s(g29
I181
tp704
(g6
(g10
S'\x00\x00\x00\x00'
p705
tp706
Rp707
g6
(g10
S'\xe8&\x99>'
p708
tp709
Rp710
tp711
s(g29
I62
tp712
(g6
(g10
S'\x00\x00\x00\x00'
p713
tp714
Rp715
g6
(g10
S'\x04\rjA'
p716
tp717
Rp718
tp719
s(g38
I84
tp720
(g6
(g10
S'\x00\x00\x00\x00'
p721
tp722
Rp723
g6
(g10
S'U\xd1hA'
p724
tp725
Rp726
tp727
s(g4
I90
tp728
(g6
(g10
S'\x00\x00\x00\x00'
p729
tp730
Rp731
g6
(g10
S'\xd8\xce\x19A'
p732
tp733
Rp734
tp735
s(g20
I195
tp736
(g6
(g10
S'\x00\x00\x00\x00'
p737
tp738
Rp739
g6
(g10
S' \xa9XA'
p740
tp741
Rp742
tp743
s(g20
I74
tp744
(g6
(g10
S'\x00\x00\x00\x00'
p745
tp746
Rp747
g6
(g10
S'\x0f\xa7F@'
p748
tp749
Rp750
tp751
s(g29
I68
tp752
(g6
(g10
S'\x00\x00\x00\x00'
p753
tp754
Rp755
g6
(g10
S'v]hA'
p756
tp757
Rp758
tp759
s(g38
I78
tp760
(g6
(g10
S'\x00\x00\x00\x00'
p761
tp762
Rp763
g6
(g10
S'\x07\xb8\xc6A'
p764
tp765
Rp766
tp767
s(g4
I116
tp768
(g6
(g10
S'\x00\x00\x00\x00'
p769
tp770
Rp771
g6
(g10
S'\x02\x0e\xbe@'
p772
tp773
Rp774
tp775
s(g38
I197
tp776
(g6
(g10
S'\x00\x00\x00\x00'
p777
tp778
Rp779
g6
(g10
S'Gb+A'
p780
tp781
Rp782
tp783
s(g20
I80
tp784
(g6
(g10
S'\x00\x00\x00\x00'
p785
tp786
Rp787
g6
(g10
S'\xd9D\x80A'
p788
tp789
Rp790
tp791
s(g29
I98
tp792
(g6
(g10
S'\x00\x00\x00\x00'
p793
tp794
Rp795
g6
(g10
S'G5.A'
p796
tp797
Rp798
tp799
s(g38
I96
tp800
(g6
(g10
S'\x00\x00\x00\x00'
p801
tp802
Rp803
g6
(g10
S'\xdf\x82\x8aA'
p804
tp805
Rp806
tp807
s(g4
I110
tp808
(g6
(g10
S'\x00\x00\x00\x00'
p809
tp810
Rp811
g6
(g10
S'\xca\xd0JA'
p812
tp813
Rp814
tp815
s(g20
I143
tp816
(g6
(g10
S'\x00\x00\x00\x00'
p817
tp818
Rp819
g6
(g10
S'\xbb\xed.A'
p820
tp821
Rp822
tp823
s(g20
I118
tp824
(g6
(g10
S'\x00\x00\x00\x00'
p825
tp826
Rp827
g6
(g10
S'\x82\x111A'
p828
tp829
Rp830
tp831
s(g29
I136
tp832
(g6
(g10
S'\x00\x00\x00\x00'
p833
tp834
Rp835
g6
(g10
S'k\x1d\xacA'
p836
tp837
Rp838
tp839
s(g38
I26
tp840
(g6
(g10
S'\x00\x00\x00\x00'
p841
tp842
Rp843
g6
(g10
S'dm\x8cA'
p844
tp845
Rp846
tp847
s(g38
I145
tp848
(g6
(g10
S'\x00\x00\x00\x00'
p849
tp850
Rp851
g6
(g10
S'o=bA'
p852
tp853
Rp854
tp855
s(g4
I1
tp856
(g6
(g10
S'\x00\x00\x00\x00'
p857
tp858
Rp859
g6
(g10
S'\xd8\xdf\x07A'
p860
tp861
Rp862
tp863
s(g20
I149
tp864
(g6
(g10
S'\x00\x00\x00\x00'
p865
tp866
Rp867
g6
(g10
S'\xd1/OA'
p868
tp869
Rp870
tp871
s(g4
I150
tp872
(g6
(g10
S'\x00\x00\x00\x00'
p873
tp874
Rp875
g6
(g10
S'?Q\xed@'
p876
tp877
Rp878
tp879
s(g20
I28
tp880
(g6
(g10
S'\x00\x00\x00\x00'
p881
tp882
Rp883
g6
(g10
S'\x14\xde\rA'
p884
tp885
Rp886
tp887
s(g29
I150
tp888
(g6
(g10
S'\x00\x00\x00\x00'
p889
tp890
Rp891
g6
(g10
S'\xb3\x9c\xa1A'
p892
tp893
Rp894
tp895
s(g38
I60
tp896
(g6
(g10
S'\x00\x00\x00\x00'
p897
tp898
Rp899
g6
(g10
S'Wi{A'
p900
tp901
Rp902
tp903
s(g29
I31
tp904
(g6
(g10
S'\x00\x00\x00\x00'
p905
tp906
Rp907
g6
(g10
S';d\x84@'
p908
tp909
Rp910
tp911
s(g38
I139
tp912
(g6
(g10
S'\x00\x00\x00\x00'
p913
tp914
Rp915
g6
(g10
S'x,\x93A'
p916
tp917
Rp918
tp919
s(g4
I59
tp920
(g6
(g10
S'\x00\x00\x00\x00'
p921
tp922
Rp923
g6
(g10
S'\x04}\x0bA'
p924
tp925
Rp926
tp927
s(g20
I187
tp928
(g6
(g10
S'\x00\x00\x00\x00'
p929
tp930
Rp931
g6
(g10
S'\x12\x1f\xe1@'
p932
tp933
Rp934
tp935
s(g4
I176
tp936
(g6
(g10
S'\x00\x00\x00\x00'
p937
tp938
Rp939
g6
(g10
S'\xf2\xee*A'
p940
tp941
Rp942
tp943
s(g20
I34
tp944
(g6
(g10
S'\x00\x00\x00\x00'
p945
tp946
Rp947
g6
(g10
S'\xcdKM@'
p948
tp949
Rp950
tp951
s(g29
I188
tp952
(g6
(g10
S'\x00\x00\x00\x00'
p953
tp954
Rp955
g6
(g10
S'z\x91\xe9@'
p956
tp957
Rp958
tp959
s(g29
I37
tp960
(g6
(g10
S'\x00\x00\x00\x00'
p961
tp962
Rp963
g6
(g10
S'2\xbc\x9cA'
p964
tp965
Rp966
tp967
s(g38
I173
tp968
(g6
(g10
S'\x00\x00\x00\x00'
p969
tp970
Rp971
g6
(g10
S';\x7f\x8fA'
p972
tp973
Rp974
tp975
s(g4
I85
tp976
(g6
(g10
S'\x00\x00\x00\x00'
p977
tp978
Rp979
g6
(g10
S'\x9d\xb8\xdb@'
p980
tp981
Rp982
tp983
s(g4
I170
tp984
(g6
(g10
S'\x00\x00\x00\x00'
p985
tp986
Rp987
g6
(g10
S'\xfb\xca\xe0@'
p988
tp989
Rp990
tp991
s(g29
I67
tp992
(g6
(g10
S'\x00\x00\x00\x00'
p993
tp994
Rp995
g6
(g10
S'`\xe5\x84A'
p996
tp997
Rp998
tp999
s(g38
I71
tp1000
(g6
(g10
S'\x00\x00\x00\x00'
p1001
tp1002
Rp1003
g6
(g10
S'=M\x9cA'
p1004
tp1005
Rp1006
tp1007
s(g4
I79
tp1008
(g6
(g10
S'\x00\x00\x00\x00'
p1009
tp1010
Rp1011
g6
(g10
S'\x0b\xf8\xdb@'
p1012
tp1013
Rp1014
tp1015
s(g4
I196
tp1016
(g6
(g10
S'\x00\x00\x00\x00'
p1017
tp1018
Rp1019
g6
(g10
S'\x9d\x18rA'
p1020
tp1021
Rp1022
tp1023
s(g20
I89
tp1024
(g6
(g10
S'\x00\x00\x00\x00'
p1025
tp1026
Rp1027
g6
(g10
S'\xec\xaf\x86@'
p1028
tp1029
Rp1030
tp1031
s(g29
I105
tp1032
(g6
(g10
S'\x00\x00\x00\x00'
p1033
tp1034
Rp1035
g6
(g10
S'\x1c@\x86A'
p1036
tp1037
Rp1038
tp1039
s(g38
I121
tp1040
(g6
(g10
S'\x00\x00\x00\x00'
p1041
tp1042
Rp1043
g6
(g10
S'\x99\xf9>A'
p1044
tp1045
Rp1046
tp1047
s(g4
I105
tp1048
(g6
(g10
S'\x00\x00\x00\x00'
p1049
tp1050
Rp1051
g6
(g10
S'\xf9\xb3IA'
p1052
tp1053
Rp1054
tp1055
s(g20
I127
tp1056
(g6
(g10
S'\x00\x00\x00\x00'
p1057
tp1058
Rp1059
g6
(g10
S'kV\xa2@'
p1060
tp1061
Rp1062
tp1063
s(g29
I119
tp1064
(g6
(g10
S'\x00\x00\x00\x00'
p1065
tp1066
Rp1067
g6
(g10
S'\xf8r\r@'
p1068
tp1069
Rp1070
tp1071
s(g38
I19
tp1072
(g6
(g10
S'\x00\x00\x00\x00'
p1073
tp1074
Rp1075
g6
(g10
S'n\x9f\x85A'
p1076
tp1077
Rp1078
tp1079
s(g4
I24
tp1080
(g6
(g10
S'\x00\x00\x00\x00'
p1081
tp1082
Rp1083
g6
(g10
S'l\xe1(A'
p1084
tp1085
Rp1086
tp1087
s(g20
I154
tp1088
(g6
(g10
S'\x00\x00\x00\x00'
p1089
tp1090
Rp1091
g6
(g10
S'\xe5\xd0\xaf@'
p1092
tp1093
Rp1094
tp1095
s(g4
I145
tp1096
(g6
(g10
S'\x00\x00\x00\x00'
p1097
tp1098
Rp1099
g6
(g10
S'~\xcd\x00A'
p1100
tp1101
Rp1102
tp1103
s(g20
I5
tp1104
(g6
(g10
S'\x00\x00\x00\x00'
p1105
tp1106
Rp1107
g6
(g10
S'+X\x96A'
p1108
tp1109
Rp1110
tp1111
s(g29
I157
tp1112
(g6
(g10
S'\x00\x00\x00\x00'
p1113
tp1114
Rp1115
g6
(g10
S'\x862\n@'
p1116
tp1117
Rp1118
tp1119
s(g38
I53
tp1120
(g6
(g10
S'\x00\x00\x00\x00'
p1121
tp1122
Rp1123
g6
(g10
S'\xaf\xe6KA'
p1124
tp1125
Rp1126
tp1127
s(g29
I6
tp1128
(g6
(g10
S'\x00\x00\x00\x00'
p1129
tp1130
Rp1131
g6
(g10
S'\xde"\xa9A'
p1132
tp1133
Rp1134
tp1135
s(g38
I140
tp1136
(g6
(g10
S'\x00\x00\x00\x00'
p1137
tp1138
Rp1139
g6
(g10
S'\xdd\x10oA'
p1140
tp1141
Rp1142
tp1143
s(g4
I50
tp1144
(g6
(g10
S'\x00\x00\x00\x00'
p1145
tp1146
Rp1147
g6
(g10
S'\xf68\x05A'
p1148
tp1149
Rp1150
tp1151
s(g20
I160
tp1152
(g6
(g10
S'\x00\x00\x00\x00'
p1153
tp1154
Rp1155
g6
(g10
S'!<\xb4@'
p1156
tp1157
Rp1158
tp1159
s(g4
I139
tp1160
(g6
(g10
S'\x00\x00\x00\x00'
p1161
tp1162
Rp1163
g6
(g10
S',\x92EA'
p1164
tp1165
Rp1166
tp1167
s(g20
I43
tp1168
(g6
(g10
S'\x00\x00\x00\x00'
p1169
tp1170
Rp1171
g6
(g10
S'\xd6E\x85A'
p1172
tp1173
Rp1174
tp1175
s(g29
I187
tp1176
(g6
(g10
S'\x00\x00\x00\x00'
p1177
tp1178
Rp1179
g6
(g10
S'q\x02QA'
p1180
tp1181
Rp1182
tp1183
s(g38
I47
tp1184
(g6
(g10
S'\x00\x00\x00\x00'
p1185
tp1186
Rp1187
g6
(g10
S'\xb7\x02BA'
p1188
tp1189
Rp1190
tp1191
s(g29
I44
tp1192
(g6
(g10
S'\x00\x00\x00\x00'
p1193
tp1194
Rp1195
g6
(g10
S'\x17\xe1\xbfA'
p1196
tp1197
Rp1198
tp1199
s(g38
I166
tp1200
(g6
(g10
S'\x00\x00\x00\x00'
p1201
tp1202
Rp1203
g6
(g10
S'\x89\x1e\x99A'
p1204
tp1205
Rp1206
tp1207
s(g4
I44
tp1208
(g6
(g10
S'\x00\x00\x00\x00'
p1209
tp1210
Rp1211
g6
(g10
S'\x94H\xc1A'
p1212
tp1213
Rp1214
tp1215
s(g4
I165
tp1216
(g6
(g10
S'\x00\x00\x00\x00'
p1217
tp1218
Rp1219
g6
(g10
S'\xb0\xa1\x12A'
p1220
tp1221
Rp1222
tp1223
s(g20
I49
tp1224
(g6
(g10
S'\x00\x00\x00\x00'
p1225
tp1226
Rp1227
g6
(g10
S':\xd3k@'
p1228
tp1229
Rp1230
tp1231
s(g29
I193
tp1232
(g6
(g10
S'\x00\x00\x00\x00'
p1233
tp1234
Rp1235
g6
(g10
S'`\xec\xb5A'
p1236
tp1237
Rp1238
tp1239
s(g29
I74
tp1240
(g6
(g10
S'\x00\x00\x00\x00'
p1241
tp1242
Rp1243
g6
(g10
S' :\xaaA'
p1244
tp1245
Rp1246
tp1247
s(g38
I88
tp1248
(g6
(g10
S'\x00\x00\x00\x00'
p1249
tp1250
Rp1251
g6
(g10
S'\x18I=A'
p1252
tp1253
Rp1254
tp1255
s(g4
I70
tp1256
(g6
(g10
S'\x00\x00\x00\x00'
p1257
tp1258
Rp1259
g6
(g10
S'2\x86\xabA'
p1260
tp1261
Rp1262
tp1263
s(g20
I94
tp1264
(g6
(g10
S'\x00\x00\x00\x00'
p1265
tp1266
Rp1267
g6
(g10
S'I\xed\rA'
p1268
tp1269
Rp1270
tp1271
s(g29
I80
tp1272
(g6
(g10
S'\x00\x00\x00\x00'
p1273
tp1274
Rp1275
g6
(g10
S'\xa7\x81\x94A'
p1276
tp1277
Rp1278
tp1279
s(g38
I114
tp1280
(g6
(g10
S'\x00\x00\x00\x00'
p1281
tp1282
Rp1283
g6
(g10
S'\x00Q`A'
p1284
tp1285
Rp1286
tp1287
s(g4
I96
tp1288
(g6
(g10
S'\x00\x00\x00\x00'
p1289
tp1290
Rp1291
g6
(g10
S'\x04\xc9\x99@'
p1292
tp1293
Rp1294
tp1295
s(g20
I100
tp1296
(g6
(g10
S'\x00\x00\x00\x00'
p1297
tp1298
Rp1299
g6
(g10
S'Z\x902A'
p1300
tp1301
Rp1302
tp1303
s(g29
I126
tp1304
(g6
(g10
S'\x00\x00\x00\x00'
p1305
tp1306
Rp1307
g6
(g10
S'\xeb\x0e\x13@'
p1308
tp1309
Rp1310
tp1311
s(g38
I20
tp1312
(g6
(g10
S'\x00\x00\x00\x00'
p1313
tp1314
Rp1315
g6
(g10
S'B\x0c\xddA'
p1316
tp1317
Rp1318
tp1319
s(g4
I19
tp1320
(g6
(g10
S'\x00\x00\x00\x00'
p1321
tp1322
Rp1323
g6
(g10
S'+8\x83A'
p1324
tp1325
Rp1326
tp1327
s(g20
I131
tp1328
(g6
(g10
S'\x00\x00\x00\x00'
p1329
tp1330
Rp1331
g6
(g10
S'\xb4\xa4\x8cA'
p1332
tp1333
Rp1334
tp1335
s(g20
I10
tp1336
(g6
(g10
S'\x00\x00\x00\x00'
p1337
tp1338
Rp1339
g6
(g10
S'\xd7\xb3\tA'
p1340
tp1341
Rp1342
tp1343
s(g29
I132
tp1344
(g6
(g10
S'\x00\x00\x00\x00'
p1345
tp1346
Rp1347
g6
(g10
S'\xd3\xb2\nA'
p1348
tp1349
Rp1350
tp1351
s(g38
I14
tp1352
(g6
(g10
S'\x00\x00\x00\x00'
p1353
tp1354
Rp1355
g6
(g10
S' \xee\x10B'
p1356
tp1357
Rp1358
tp1359
s(g29
I13
tp1360
(g6
(g10
S'\x00\x00\x00\x00'
p1361
tp1362
Rp1363
g6
(g10
S'K\x92\xd6A'
p1364
tp1365
Rp1366
tp1367
s(g38
I133
tp1368
(g6
(g10
S'\x00\x00\x00\x00'
p1369
tp1370
Rp1371
g6
(g10
S'qj\xabA'
p1372
tp1373
Rp1374
tp1375
s(g4
I13
tp1376
(g6
(g10
S'\x00\x00\x00\x00'
p1377
tp1378
Rp1379
g6
(g10
S'\x11.\xc4A'
p1380
tp1381
Rp1382
tp1383
s(g20
I169
tp1384
(g6
(g10
S'\x00\x00\x00\x00'
p1385
tp1386
Rp1387
g6
(g10
S'\x18f\x0c@'
p1388
tp1389
Rp1390
tp1391
s(g4
I130
tp1392
(g6
(g10
S'\x00\x00\x00\x00'
p1393
tp1394
Rp1395
g6
(g10
S'C\xcd\xc1A'
p1396
tp1397
Rp1398
tp1399
s(g20
I16
tp1400
(g6
(g10
S'\x00\x00\x00\x00'
p1401
tp1402
Rp1403
g6
(g10
S'q\x03\xb5@'
p1404
tp1405
Rp1406
tp1407
s(g29
I162
tp1408
(g6
(g10
S'\x00\x00\x00\x00'
p1409
tp1410
Rp1411
g6
(g10
S'+\xcf\xe1>'
p1412
tp1413
Rp1414
tp1415
s(g38
I32
tp1416
(g6
(g10
S'\x00\x00\x00\x00'
p1417
tp1418
Rp1419
g6
(g10
S'\xb2_YA'
p1420
tp1421
Rp1422
tp1423
s(g29
I43
tp1424
(g6
(g10
S'\x00\x00\x00\x00'
p1425
tp1426
Rp1427
g6
(g10
S',\xe04A'
p1428
tp1429
Rp1430
tp1431
s(g38
I191
tp1432
(g6
(g10
S'\x00\x00\x00\x00'
p1433
tp1434
Rp1435
g6
(g10
S'\xd9n\x8dA'
p1436
tp1437
Rp1438
tp1439
s(g4
I39
tp1440
(g6
(g10
S'\x00\x00\x00\x00'
p1441
tp1442
Rp1443
g6
(g10
S'\x1f\x93\xf7@'
p1444
tp1445
Rp1446
tp1447
s(g4
I188
tp1448
(g6
(g10
S'\x00\x00\x00\x00'
p1449
tp1450
Rp1451
g6
(g10
S'\xaa&bA'
p1452
tp1453
Rp1454
tp1455
s(g20
I54
tp1456
(g6
(g10
S'\x00\x00\x00\x00'
p1457
tp1458
Rp1459
g6
(g10
S'Z\xce\xc2@'
p1460
tp1461
Rp1462
tp1463
s(g29
I49
tp1464
(g6
(g10
S'\x00\x00\x00\x00'
p1465
tp1466
Rp1467
g6
(g10
S'\xcc[BA'
p1468
tp1469
Rp1470
tp1471
s(g38
I81
tp1472
(g6
(g10
S'\x00\x00\x00\x00'
p1473
tp1474
Rp1475
g6
(g10
S'\xe0\x1a\x87A'
p1476
tp1477
Rp1478
tp1479
s(g4
I65
tp1480
(g6
(g10
S'\x00\x00\x00\x00'
p1481
tp1482
Rp1483
g6
(g10
S'\x8c\xf8\x84A'
p1484
tp1485
Rp1486
tp1487
s(g20
I71
tp1488
(g6
(g10
S'\x00\x00\x00\x00'
p1489
tp1490
Rp1491
g6
(g10
S'\x99\x93\xe3?'
p1492
tp1493
Rp1494
tp1495
s(g29
I95
tp1496
(g6
(g10
S'\x00\x00\x00\x00'
p1497
tp1498
Rp1499
g6
(g10
S'\x11\x1dcA'
p1500
tp1501
Rp1502
tp1503
s(g38
I75
tp1504
(g6
(g10
S'\x00\x00\x00\x00'
p1505
tp1506
Rp1507
g6
(g10
S'$\x8e\x06B'
p1508
tp1509
Rp1510
tp1511
s(g4
I123
tp1512
(g6
(g10
S'\x00\x00\x00\x00'
p1513
tp1514
Rp1515
g6
(g10
S'-\x04\xcbA'
p1516
tp1517
Rp1518
tp1519
s(g38
I194
tp1520
(g6
(g10
S'\x00\x00\x00\x00'
p1521
tp1522
Rp1523
g6
(g10
S'\xc7\xeb\x1fA'
p1524
tp1525
Rp1526
tp1527
s(g20
I109
tp1528
(g6
(g10
S'\x00\x00\x00\x00'
p1529
tp1530
Rp1531
g6
(g10
S'\xccXRA'
p1532
tp1533
Rp1534
tp1535
s(g29
I101
tp1536
(g6
(g10
S'\x00\x00\x00\x00'
p1537
tp1538
Rp1539
g6
(g10
S'(\tJA'
p1540
tp1541
Rp1542
tp1543
s(g38
I109
tp1544
(g6
(g10
S'\x00\x00\x00\x00'
p1545
tp1546
Rp1547
g6
(g10
S'8_\x97A'
p1548
tp1549
Rp1550
tp1551
s(g20
I136
tp1552
(g6
(g10
S'\x00\x00\x00\x00'
p1553
tp1554
Rp1555
g6
(g10
S'\x07\xdd\xb1?'
p1556
tp1557
Rp1558
tp1559
s(g20
I115
tp1560
(g6
(g10
S'\x00\x00\x00\x00'
p1561
tp1562
Rp1563
g6
(g10
S'\xeb\xf0\xaa@'
p1564
tp1565
Rp1566
tp1567
s(g29
I131
tp1568
(g6
(g10
S'\x00\x00\x00\x00'
p1569
tp1570
Rp1571
g6
(g10
S'\x8f{/A'
p1572
tp1573
Rp1574
tp1575
s(g38
I7
tp1576
(g6
(g10
S'\x00\x00\x00\x00'
p1577
tp1578
Rp1579
g6
(g10
S'?^\xa3A'
p1580
tp1581
Rp1582
tp1583
s(g38
I158
tp1584
(g6
(g10
S'\x00\x00\x00\x00'
p1585
tp1586
Rp1587
g6
(g10
S'#\x19xA'
p1588
tp1589
Rp1590
tp1591
s(g4
I4
tp1592
(g6
(g10
S'\x00\x00\x00\x00'
p1593
tp1594
Rp1595
g6
(g10
S'\xdc-\x83A'
p1596
tp1597
Rp1598
tp1599
s(g20
I174
tp1600
(g6
(g10
S'\x00\x00\x00\x00'
p1601
tp1602
Rp1603
g6
(g10
S'\x0e\xd9\xa7?'
p1604
tp1605
Rp1606
tp1607
s(g4
I157
tp1608
(g6
(g10
S'\x00\x00\x00\x00'
p1609
tp1610
Rp1611
g6
(g10
S'\x82\x8bVA'
p1612
tp1613
Rp1614
tp1615
s(g20
I25
tp1616
(g6
(g10
S'\x00\x00\x00\x00'
p1617
tp1618
Rp1619
g6
(g10
S'<\xfb\xe5@'
p1620
tp1621
Rp1622
tp1623
s(g29
I169
tp1624
(g6
(g10
S'\x00\x00\x00\x00'
p1625
tp1626
Rp1627
g1627
tp1628
s(g38
I57
tp1629
(g6
(g10
S'\x00\x00\x00\x00'
p1630
tp1631
Rp1632
g6
(g10
S'\xcc\x9dBA'
p1633
tp1634
Rp1635
tp1636
s(g29
I18
tp1637
(g6
(g10
S'\x00\x00\x00\x00'
p1638
tp1639
Rp1640
g6
(g10
S'\x93\x93\x9bA'
p1641
tp1642
Rp1643
tp1644
s(g38
I176
tp1645
(g6
(g10
S'\x00\x00\x00\x00'
p1646
tp1647
Rp1648
g6
(g10
S'c\xf2AA'
p1649
tp1650
Rp1651
tp1652
s(g4
I62
tp1653
(g6
(g10
S'\x00\x00\x00\x00'
p1654
tp1655
Rp1656
g6
(g10
S'\xaf\x92\x88@'
p1657
tp1658
Rp1659
tp1660
s(g20
I180
tp1661
(g6
(g10
S'\x00\x00\x00\x00'
p1662
tp1663
Rp1664
g6
(g10
S'`\x9b\xfa@'
p1665
tp1666
Rp1667
tp1668
s(g4
I183
tp1669
(g6
(g10
S'\x00\x00\x00\x00'
p1670
tp1671
Rp1672
g6
(g10
S'\xcc\x82\xa5@'
p1673
tp1674
Rp1675
tp1676
s(g20
I63
tp1677
(g6
(g10
S'\x00\x00\x00\x00'
p1678
tp1679
Rp1680
g6
(g10
S'Bh\x1fA'
p1681
tp1682
Rp1683
tp1684
s(g29
I183
tp1685
(g6
(g10
S'\x00\x00\x00\x00'
p1686
tp1687
Rp1688
g6
(g10
S'\xd6\\\x0c@'
p1689
tp1690
Rp1691
tp1692
s(g29
I56
tp1693
(g6
(g10
S'\x00\x00\x00\x00'
p1694
tp1695
Rp1696
g6
(g10
S's\xd4\x8dA'
p1697
tp1698
Rp1699
tp1700
s(g38
I170
tp1701
(g6
(g10
S'\x00\x00\x00\x00'
p1702
tp1703
Rp1704
g6
(g10
S'\xc3\xbeQA'
p1705
tp1706
Rp1707
tp1708
s(g4
I88
tp1709
(g6
(g10
S'\x00\x00\x00\x00'
p1710
tp1711
Rp1712
g6
(g10
S'r\xef\xca@'
p1713
tp1714
Rp1715
tp1716
s(g20
I197
tp1717
(g6
(g10
S'\x00\x00\x00\x00'
p1718
tp1719
Rp1720
g6
(g10
S'P\xc4\x14A'
p1721
tp1722
Rp1723
tp1724
s(g20
I76
tp1725
(g6
(g10
S'\x00\x00\x00\x00'
p1726
tp1727
Rp1728
g6
(g10
S'\xc2\xddHA'
p1729
tp1730
Rp1731
tp1732
s(g29
I70
tp1733
(g6
(g10
S'\x00\x00\x00\x00'
p1734
tp1735
Rp1736
g6
(g10
S'\xc6\x8a\x00@'
p1737
tp1738
Rp1739
tp1740
s(g38
I76
tp1741
(g6
(g10
S'\x00\x00\x00\x00'
p1742
tp1743
Rp1744
g6
(g10
S'\xa9]\xbbA'
p1745
tp1746
Rp1747
tp1748
s(g4
I114
tp1749
(g6
(g10
S'\x00\x00\x00\x00'
p1750
tp1751
Rp1752
g6
(g10
S'\x0e\xe6\xaf@'
p1753
tp1754
Rp1755
tp1756
s(g20
I82
tp1757
(g6
(g10
S'\x00\x00\x00\x00'
p1758
tp1759
Rp1760
g6
(g10
S'a$ A'
p1761
tp1762
Rp1763
tp1764
s(g29
I108
tp1765
(g6
(g10
S'\x00\x00\x00\x00'
p1766
tp1767
Rp1768
g6
(g10
S'r\xbeBA'
p1769
tp1770
Rp1771
tp1772
s(g38
I102
tp1773
(g6
(g10
S'\x00\x00\x00\x00'
p1774
tp1775
Rp1776
g6
(g10
S'\xc47\x0fA'
p1777
tp1778
Rp1779
tp1780
s(g4
I108
tp1781
(g6
(g10
S'\x00\x00\x00\x00'
p1782
tp1783
Rp1784
g6
(g10
S'\x98ZI@'
p1785
tp1786
Rp1787
tp1788
s(g20
I120
tp1789
(g6
(g10
S'\x00\x00\x00\x00'
p1790
tp1791
Rp1792
g6
(g10
S'\xd7\x8cLA'
p1793
tp1794
Rp1795
tp1796
s(g29
I138
tp1797
(g6
(g10
S'\x00\x00\x00\x00'
p1798
tp1799
Rp1800
g6
(g10
S'UF\x0fA'
p1801
tp1802
Rp1803
tp1804
s(g38
I24
tp1805
(g6
(g10
S'\x00\x00\x00\x00'
p1806
tp1807
Rp1808
g6
(g10
S'>\xcfaA'
p1809
tp1810
Rp1811
tp1812
s(g38
I151
tp1813
(g6
(g10
S'\x00\x00\x00\x00'
p1814
tp1815
Rp1816
g6
(g10
S'\xf3\x9a:A'
p1817
tp1818
Rp1819
tp1820
s(g4
I31
tp1821
(g6
(g10
S'\x00\x00\x00\x00'
p1822
tp1823
Rp1824
g6
(g10
S'\x89\xe1yA'
p1825
tp1826
Rp1827
tp1828
s(g20
I151
tp1829
(g6
(g10
S'\x00\x00\x00\x00'
p1830
tp1831
Rp1832
g6
(g10
S'\xd0G\x08B'
p1833
tp1834
Rp1835
tp1836
s(g4
I148
tp1837
(g6
(g10
S'\x00\x00\x00\x00'
p1838
tp1839
Rp1840
g6
(g10
S'\xf2d\xe8@'
p1841
tp1842
Rp1843
tp1844
s(g20
I30
tp1845
(g6
(g10
S'\x00\x00\x00\x00'
p1846
tp1847
Rp1848
g6
(g10
S'\x15\x16\xca?'
p1849
tp1850
Rp1851
tp1852
s(g29
I144
tp1853
(g6
(g10
S'\x00\x00\x00\x00'
p1854
tp1855
Rp1856
g6
(g10
S'3a6A'
p1857
tp1858
Rp1859
tp1860
s(g38
I50
tp1861
(g6
(g10
S'\x00\x00\x00\x00'
p1862
tp1863
Rp1864
g6
(g10
S'\xa4\xe1fA'
p1865
tp1866
Rp1867
tp1868
s(g29
I25
tp1869
(g6
(g10
S'\x00\x00\x00\x00'
p1870
tp1871
Rp1872
g6
(g10
S'7\x88\x95>'
p1873
tp1874
Rp1875
tp1876
s(g38
I137
tp1877
(g6
(g10
S'\x00\x00\x00\x00'
p1878
tp1879
Rp1880
g6
(g10
S'\x8e\xc7\xd1A'
p1881
tp1882
Rp1883
tp1884
s(g4
I57
tp1885
(g6
(g10
S'\x00\x00\x00\x00'
p1886
tp1887
Rp1888
g6
(g10
S'\xac\xbb\x93A'
p1889
tp1890
Rp1891
tp1892
s(g20
I189
tp1893
(g6
(g10
S'\x00\x00\x00\x00'
p1894
tp1895
Rp1896
g6
(g10
S'\xf2\xe1\x1bA'
p1897
tp1898
Rp1899
tp1900
s(g4
I142
tp1901
(g6
(g10
S'\x00\x00\x00\x00'
p1902
tp1903
Rp1904
g6
(g10
S'\x0b\x0b\xd5A'
p1905
tp1906
Rp1907
tp1908
s(g20
I36
tp1909
(g6
(g10
S'\x00\x00\x00\x00'
p1910
tp1911
Rp1912
g6
(g10
S'\xd6\xdb_A'
p1913
tp1914
Rp1915
tp1916
s(g29
I190
tp1917
(g6
(g10
S'\x00\x00\x00\x00'
p1918
tp1919
Rp1920
g6
(g10
S't\x1a\xcfA'
p1921
tp1922
Rp1923
tp1924
s(g29
I39
tp1925
(g6
(g10
S'\x00\x00\x00\x00'
p1926
tp1927
Rp1928
g6
(g10
S'\xaev\xa6>'
p1929
tp1930
Rp1931
tp1932
s(g38
I163
tp1933
(g6
(g10
S'\x00\x00\x00\x00'
p1934
tp1935
Rp1936
g6
(g10
S' \xe9\x8eA'
p1937
tp1938
Rp1939
tp1940
s(g4
I83
tp1941
(g6
(g10
S'\x00\x00\x00\x00'
p1942
tp1943
Rp1944
g6
(g10
S'\x99#\x8d@'
p1945
tp1946
Rp1947
tp1948
s(g4
I168
tp1949
(g6
(g10
S'\x00\x00\x00\x00'
p1950
tp1951
Rp1952
g6
(g10
S'Ev\xb6A'
p1953
tp1954
Rp1955
tp1956
s(g29
I196
tp1957
(g6
(g10
S'\x00\x00\x00\x00'
p1958
tp1959
Rp1960
g6
(g10
S'\xb6\x81\xdbA'
p1961
tp1962
Rp1963
tp1964
s(g29
I77
tp1965
(g6
(g10
S'\x00\x00\x00\x00'
p1966
tp1967
Rp1968
g6
(g10
S'u\xf0\xde@'
p1969
tp1970
Rp1971
tp1972
s(g38
I69
tp1973
(g6
(g10
S'\x00\x00\x00\x00'
p1974
tp1975
Rp1976
g6
(g10
S'\x9f\xbc\x84A'
p1977
tp1978
Rp1979
tp1980
s(g4
I77
tp1981
(g6
(g10
S'\x00\x00\x00\x00'
p1982
tp1983
Rp1984
g6
(g10
S'O\x03CA'
p1985
tp1986
Rp1987
tp1988
s(g4
I194
tp1989
(g6
(g10
S'\x00\x00\x00\x00'
p1990
tp1991
Rp1992
g6
(g10
S'\xc9 \xa1@'
p1993
tp1994
Rp1995
tp1996
s(g20
I91
tp1997
(g6
(g10
S'\x00\x00\x00\x00'
p1998
tp1999
Rp2000
g6
(g10
S'\x95\xd4\x1bA'
p2001
tp2002
Rp2003
tp2004
s(g29
I107
tp2005
(g6
(g10
S'\x00\x00\x00\x00'
p2006
tp2007
Rp2008
g6
(g10
S'+\xdbu@'
p2009
tp2010
Rp2011
tp2012
s(g38
I127
tp2013
(g6
(g10
S'\x00\x00\x00\x00'
p2014
tp2015
Rp2016
g6
(g10
S'\x01\xcbnA'
p2017
tp2018
Rp2019
tp2020
s(g4
I103
tp2021
(g6
(g10
S'\x00\x00\x00\x00'
p2022
tp2023
Rp2024
g6
(g10
S'\x0b\xe5\xef@'
p2025
tp2026
Rp2027
tp2028
s(g20
I97
tp2029
(g6
(g10
S'\x00\x00\x00\x00'
p2030
tp2031
Rp2032
g6
(g10
S'z\xeb\xa7@'
p2033
tp2034
Rp2035
tp2036
s(g29
I113
tp2037
(g6
(g10
S'\x00\x00\x00\x00'
p2038
tp2039
Rp2040
g6
(g10
S'@\x9fO@'
p2041
tp2042
Rp2043
tp2044
s(g38
I17
tp2045
(g6
(g10
S'\x00\x00\x00\x00'
p2046
tp2047
Rp2048
g6
(g10
S'\rieA'
p2049
tp2050
Rp2051
tp2052
s(g4
I22
tp2053
(g6
(g10
S'\x00\x00\x00\x00'
p2054
tp2055
Rp2056
g6
(g10
S'Y\x18FA'
p2057
tp2058
Rp2059
tp2060
s(g20
I156
tp2061
(g6
(g10
S'\x00\x00\x00\x00'
p2062
tp2063
Rp2064
g6
(g10
S'\xc6\xc7\xdf@'
p2065
tp2066
Rp2067
tp2068
s(g20
I7
tp2069
(g6
(g10
S'\x00\x00\x00\x00'
p2070
tp2071
Rp2072
g6
(g10
S'dp?A'
p2073
tp2074
Rp2075
tp2076
s(g29
I159
tp2077
(g6
(g10
S'\x00\x00\x00\x00'
p2078
tp2079
Rp2080
g6
(g10
S'\xef\xcf\x90@'
p2081
tp2082
Rp2083
tp2084
s(g38
I11
tp2085
(g6
(g10
S'\x00\x00\x00\x00'
p2086
tp2087
Rp2088
g6
(g10
S'\x03}\x80A'
p2089
tp2090
Rp2091
tp2092
s(g29
I0
tp2093
(g6
(g10
S'\x00\x00\x00\x00'
p2094
tp2095
Rp2096
g6
(g10
S'\xbe6\x00A'
p2097
tp2098
Rp2099
tp2100
s(g38
I130
tp2101
(g6
(g10
S'\x00\x00\x00\x00'
p2102
tp2103
Rp2104
g6
(g10
S'\x1e\xcd\x01B'
p2105
tp2106
Rp2107
tp2108
s(g4
I48
tp2109
(g6
(g10
S'\x00\x00\x00\x00'
p2110
tp2111
Rp2112
g6
(g10
S'\xc3ghA'
p2113
tp2114
Rp2115
tp2116
s(g20
I162
tp2117
(g6
(g10
S'\x00\x00\x00\x00'
p2118
tp2119
Rp2120
g6
(g10
S'~\xcfq@'
p2121
tp2122
Rp2123
tp2124
s(g4
I137
tp2125
(g6
(g10
S'\x00\x00\x00\x00'
p2126
tp2127
Rp2128
g6
(g10
S'\x88DFA'
p2129
tp2130
Rp2131
tp2132
s(g20
I45
tp2133
(g6
(g10
S'\x00\x00\x00\x00'
p2134
tp2135
Rp2136
g6
(g10
S'\xae%\xe1@'
p2137
tp2138
Rp2139
tp2140
s(g29
I165
tp2141
(g6
(g10
S'\x00\x00\x00\x00'
p2142
tp2143
Rp2144
g2144
tp2145
s(g38
I45
tp2146
(g6
(g10
S'\x00\x00\x00\x00'
p2147
tp2148
Rp2149
g6
(g10
S'+E\x96A'
p2150
tp2151
Rp2152
tp2153
s(g29
I46
tp2154
(g6
(g10
S'\x00\x00\x00\x00'
p2155
tp2156
Rp2157
g2157
tp2158
s(g38
I164
tp2159
(g6
(g10
S'\x00\x00\x00\x00'
p2160
tp2161
Rp2162
g6
(g10
S'\xdf\xb1\xfdA'
p2163
tp2164
Rp2165
tp2166
s(g4
I42
tp2167
(g6
(g10
S'\x00\x00\x00\x00'
p2168
tp2169
Rp2170
g6
(g10
S'\x02z\x01A'
p2171
tp2172
Rp2173
tp2174
s(g4
I163
tp2175
(g6
(g10
S'\x00\x00\x00\x00'
p2176
tp2177
Rp2178
g6
(g10
S')?\x01A'
p2179
tp2180
Rp2181
tp2182
s(g20
I51
tp2183
(g6
(g10
S'\x00\x00\x00\x00'
p2184
tp2185
Rp2186
g6
(g10
S'6\xe6<A'
p2187
tp2188
Rp2189
tp2190
s(g29
I195
tp2191
(g6
(g10
S'\x00\x00\x00\x00'
p2192
tp2193
Rp2194
g6
(g10
S'\xdb/\xc6?'
p2195
tp2196
Rp2197
tp2198
s(g29
I52
tp2199
(g6
(g10
S'\x00\x00\x00\x00'
p2200
tp2201
Rp2202
g6
(g10
S'd1\x97A'
p2203
tp2204
Rp2205
tp2206
s(g38
I94
tp2207
(g6
(g10
S'\x00\x00\x00\x00'
p2208
tp2209
Rp2210
g6
(g10
S'Z\x14\x1fA'
p2211
tp2212
Rp2213
tp2214
s(g4
I68
tp2215
(g6
(g10
S'\x00\x00\x00\x00'
p2216
tp2217
Rp2218
g6
(g10
S'\x0b\x8c\x1b@'
p2219
tp2220
Rp2221
tp2222
s(g20
I64
tp2223
(g6
(g10
S'\x00\x00\x00\x00'
p2224
tp2225
Rp2226
g6
(g10
S'nV\x96A'
p2227
tp2228
Rp2229
tp2230
s(g29
I82
tp2231
(g6
(g10
S'\x00\x00\x00\x00'
p2232
tp2233
Rp2234
g6
(g10
S'0\x9f*A'
p2235
tp2236
Rp2237
tp2238
s(g38
I112
tp2239
(g6
(g10
S'\x00\x00\x00\x00'
p2240
tp2241
Rp2242
g6
(g10
S'(GyA'
p2243
tp2244
Rp2245
tp2246
s(g4
I126
tp2247
(g6
(g10
S'\x00\x00\x00\x00'
p2248
tp2249
Rp2250
g6
(g10
S'\xacO\xb7@'
p2251
tp2252
Rp2253
tp2254
s(g20
I102
tp2255
(g6
(g10
S'\x00\x00\x00\x00'
p2256
tp2257
Rp2258
g6
(g10
S'\xb9@\x06A'
p2259
tp2260
Rp2261
tp2262
s(g29
I120
tp2263
(g6
(g10
S'\x00\x00\x00\x00'
p2264
tp2265
Rp2266
g6
(g10
S'\xb2\xfbVA'
p2267
tp2268
Rp2269
tp2270
s(g38
I106
tp2271
(g6
(g10
S'\x00\x00\x00\x00'
p2272
tp2273
Rp2274
g6
(g10
S'\xaf\xb6\x8cA'
p2275
tp2276
Rp2277
tp2278
s(g4
I17
tp2279
(g6
(g10
S'\x00\x00\x00\x00'
p2280
tp2281
Rp2282
g6
(g10
S'\x90\x883A'
p2283
tp2284
Rp2285
tp2286
s(g20
I133
tp2287
(g6
(g10
S'\x00\x00\x00\x00'
p2288
tp2289
Rp2290
g6
(g10
S'\x05W7A'
p2291
tp2292
Rp2293
tp2294
s(g20
I12
tp2295
(g6
(g10
S'\x00\x00\x00\x00'
p2296
tp2297
Rp2298
g6
(g10
S'?\xaa\xa4A'
p2299
tp2300
Rp2301
tp2302
s(g29
I134
tp2303
(g6
(g10
S'\x00\x00\x00\x00'
p2304
tp2305
Rp2306
g6
(g10
S' \xe8\xf8A'
p2307
tp2308
Rp2309
tp2310
s(g38
I12
tp2311
(g6
(g10
S'\x00\x00\x00\x00'
p2312
tp2313
Rp2314
g6
(g10
S'\xbbiUA'
p2315
tp2316
Rp2317
tp2318
s(g29
I15
tp2319
(g6
(g10
S'\x00\x00\x00\x00'
p2320
tp2321
Rp2322
g6
(g10
S'\x01\xa8_A'
p2323
tp2324
Rp2325
tp2326
s(g38
I155
tp2327
(g6
(g10
S'\x00\x00\x00\x00'
p2328
tp2329
Rp2330
g6
(g10
S'\x0eM\xbdA'
p2331
tp2332
Rp2333
tp2334
s(g4
I11
tp2335
(g6
(g10
S'\x00\x00\x00\x00'
p2336
tp2337
Rp2338
g6
(g10
S'\x1bd\x82A'
p2339
tp2340
Rp2341
tp2342
s(g20
I171
tp2343
(g6
(g10
S'\x00\x00\x00\x00'
p2344
tp2345
Rp2346
g6
(g10
S'Q \xddA'
p2347
tp2348
Rp2349
tp2350
s(g4
I128
tp2351
(g6
(g10
S'\x00\x00\x00\x00'
p2352
tp2353
Rp2354
g6
(g10
S'\x96\xfa\x0bA'
p2355
tp2356
Rp2357
tp2358
s(g20
I18
tp2359
(g6
(g10
S'\x00\x00\x00\x00'
p2360
tp2361
Rp2362
g6
(g10
S'`\xb6CA'
p2363
tp2364
Rp2365
tp2366
s(g29
I172
tp2367
(g6
(g10
S'\x00\x00\x00\x00'
p2368
tp2369
Rp2370
g6
(g10
S'\xae\xe8BA'
p2371
tp2372
Rp2373
tp2374
s(g38
I38
tp2375
(g6
(g10
S'\x00\x00\x00\x00'
p2376
tp2377
Rp2378
g6
(g10
S'\xd6\xc0|A'
p2379
tp2380
Rp2381
tp2382
s(g29
I21
tp2383
(g6
(g10
S'\x00\x00\x00\x00'
p2384
tp2385
Rp2386
g6
(g10
S'\x97k\xcd@'
p2387
tp2388
Rp2389
tp2390
s(g38
I189
tp2391
(g6
(g10
S'\x00\x00\x00\x00'
p2392
tp2393
Rp2394
g6
(g10
S'\xf5<\xdb@'
p2395
tp2396
Rp2397
tp2398
s(g4
I37
tp2399
(g6
(g10
S'\x00\x00\x00\x00'
p2400
tp2401
Rp2402
g6
(g10
S'\x04\xb7n@'
p2403
tp2404
Rp2405
tp2406
s(g20
I177
tp2407
(g6
(g10
S'\x00\x00\x00\x00'
p2408
tp2409
Rp2410
g6
(g10
S'\x1a\xc9\xe6A'
p2411
tp2412
Rp2413
tp2414
s(g4
I186
tp2415
(g6
(g10
S'\x00\x00\x00\x00'
p2416
tp2417
Rp2418
g6
(g10
S'\xbd\x92uA'
p2419
tp2420
Rp2421
tp2422
s(g20
I56
tp2423
(g6
(g10
S'\x00\x00\x00\x00'
p2424
tp2425
Rp2426
g6
(g10
S'\xf6$\xfc@'
p2427
tp2428
Rp2429
tp2430
s(S'before_softmax'
p2431
I0
tp2432
(g6
(g10
S'\x16U]\xc2'
p2433
tp2434
Rp2435
g6
(g10
S'\xdaf\xd4B'
p2436
tp2437
Rp2438
tp2439
s(g29
I51
tp2440
(g6
(g10
S'\x00\x00\x00\x00'
p2441
tp2442
Rp2443
g6
(g10
S'\x15\xb2H@'
p2444
tp2445
Rp2446
tp2447
s(g38
I87
tp2448
(g6
(g10
S'\x00\x00\x00\x00'
p2449
tp2450
Rp2451
g6
(g10
S't\x9b\x07A'
p2452
tp2453
Rp2454
tp2455
s(g4
I95
tp2456
(g6
(g10
S'\x00\x00\x00\x00'
p2457
tp2458
Rp2459
g6
(g10
S'r\xb7WA'
p2460
tp2461
Rp2462
tp2463
s(g20
I73
tp2464
(g6
(g10
S'\x00\x00\x00\x00'
p2465
tp2466
Rp2467
g6
(g10
S'\xc1\x8e\xc7@'
p2468
tp2469
Rp2470
tp2471
s(g29
I89
tp2472
(g6
(g10
S'\x00\x00\x00\x00'
p2473
tp2474
Rp2475
g6
(g10
S'\xf0J\x1f@'
p2476
tp2477
Rp2478
tp2479
s(g38
I73
tp2480
(g6
(g10
S'\x00\x00\x00\x00'
p2481
tp2482
Rp2483
g6
(g10
S'\xfc\xe4\x92A'
p2484
tp2485
Rp2486
tp2487
s(g4
I121
tp2488
(g6
(g10
S'\x00\x00\x00\x00'
p2489
tp2490
Rp2491
g6
(g10
S'\xfd\xad\x8fA'
p2492
tp2493
Rp2494
tp2495
s(g38
I192
tp2496
(g6
(g10
S'\x00\x00\x00\x00'
p2497
tp2498
Rp2499
g6
(g10
S'R\xb5\x99A'
p2500
tp2501
Rp2502
tp2503
s(g20
I111
tp2504
(g6
(g10
S'\x00\x00\x00\x00'
p2505
tp2506
Rp2507
g6
(g10
S'\t?\xb4@'
p2508
tp2509
Rp2510
tp2511
s(g29
I103
tp2512
(g6
(g10
S'\x00\x00\x00\x00'
p2513
tp2514
Rp2515
g6
(g10
S'\x9b\xf1\xa2@'
p2516
tp2517
Rp2518
tp2519
s(g38
I99
tp2520
(g6
(g10
S'\x00\x00\x00\x00'
p2521
tp2522
Rp2523
g6
(g10
S'\xc1;\xa3A'
p2524
tp2525
Rp2526
tp2527
s(g20
I138
tp2528
(g6
(g10
S'\x00\x00\x00\x00'
p2529
tp2530
Rp2531
g6
(g10
S'\x90\xe7\xb6A'
p2532
tp2533
Rp2534
tp2535
s(g20
I117
tp2536
(g6
(g10
S'\x00\x00\x00\x00'
p2537
tp2538
Rp2539
g6
(g10
S'1B\x11A'
p2540
tp2541
Rp2542
tp2543
s(g29
I141
tp2544
(g6
(g10
S'\x00\x00\x00\x00'
p2545
tp2546
Rp2547
g6
(g10
S'u\xc0w?'
p2548
tp2549
Rp2550
tp2551
s(g38
I5
tp2552
(g6
(g10
S'\x00\x00\x00\x00'
p2553
tp2554
Rp2555
g6
(g10
S'L\x00\xe4A'
p2556
tp2557
Rp2558
tp2559
s(g38
I156
tp2560
(g6
(g10
S'\x00\x00\x00\x00'
p2561
tp2562
Rp2563
g6
(g10
S'\xe4\xc4]A'
p2564
tp2565
Rp2566
tp2567
s(g4
I2
tp2568
(g6
(g10
S'\x00\x00\x00\x00'
p2569
tp2570
Rp2571
g6
(g10
S'>!\xb4A'
p2572
tp2573
Rp2574
tp2575
s(g20
I144
tp2576
(g6
(g10
S'\x00\x00\x00\x00'
p2577
tp2578
Rp2579
g6
(g10
S'P\x7f\x93@'
p2580
tp2581
Rp2582
tp2583
s(g4
I155
tp2584
(g6
(g10
S'\x00\x00\x00\x00'
p2585
tp2586
Rp2587
g6
(g10
S'\x92\x86dA'
p2588
tp2589
Rp2590
tp2591
s(g20
I27
tp2592
(g6
(g10
S'\x00\x00\x00\x00'
p2593
tp2594
Rp2595
g6
(g10
S'\xbe\xc8\xaf@'
p2596
tp2597
Rp2598
tp2599
s(g29
I171
tp2600
(g6
(g10
S'\x00\x00\x00\x00'
p2601
tp2602
Rp2603
g6
(g10
S'\x1a@4A'
p2604
tp2605
Rp2606
tp2607
s(g38
I63
tp2608
(g6
(g10
S'\x00\x00\x00\x00'
p2609
tp2610
Rp2611
g6
(g10
S'\x9f~\xb3A'
p2612
tp2613
Rp2614
tp2615
s(g29
I28
tp2616
(g6
(g10
S'\x00\x00\x00\x00'
p2617
tp2618
Rp2619
g6
(g10
S'\x11\xebn<'
p2620
tp2621
Rp2622
tp2623
s(g38
I182
tp2624
(g6
(g10
S'\x00\x00\x00\x00'
p2625
tp2626
Rp2627
g6
(g10
S'pK\xa8A'
p2628
tp2629
Rp2630
tp2631
s(g4
I60
tp2632
(g6
(g10
S'\x00\x00\x00\x00'
p2633
tp2634
Rp2635
g6
(g10
S'u|\x1dA'
p2636
tp2637
Rp2638
tp2639
s(g20
I182
tp2640
(g6
(g10
S'\x00\x00\x00\x00'
p2641
tp2642
Rp2643
g6
(g10
S'=\xf2\x96?'
p2644
tp2645
Rp2646
tp2647
s(g4
I181
tp2648
(g6
(g10
S'\x00\x00\x00\x00'
p2649
tp2650
Rp2651
g6
(g10
S'\xa0\x9b\xb5?'
p2652
tp2653
Rp2654
tp2655
s(g20
I33
tp2656
(g6
(g10
S'\x00\x00\x00\x00'
p2657
tp2658
Rp2659
g6
(g10
S'Gp\x97A'
p2660
tp2661
Rp2662
tp2663
s(g29
I177
tp2664
(g6
(g10
S'\x00\x00\x00\x00'
p2665
tp2666
Rp2667
g6
(g10
S'r\x90\x02B'
p2668
tp2669
Rp2670
tp2671
s(g29
I58
tp2672
(g6
(g10
S'\x00\x00\x00\x00'
p2673
tp2674
Rp2675
g6
(g10
S')\xdb\x8f>'
p2676
tp2677
Rp2678
tp2679
s(g38
I168
tp2680
(g6
(g10
S'\x00\x00\x00\x00'
p2681
tp2682
Rp2683
g6
(g10
S'\x03\x15\nB'
p2684
tp2685
Rp2686
tp2687
s(g4
I86
tp2688
(g6
(g10
S'\x00\x00\x00\x00'
p2689
tp2690
Rp2691
g6
(g10
S'"\x142A'
p2692
tp2693
Rp2694
tp2695
s(g4
I175
tp2696
(g6
(g10
S'\x00\x00\x00\x00'
p2697
tp2698
Rp2699
g6
(g10
S'\xc1g\x93A'
p2700
tp2701
Rp2702
tp2703
s(g20
I199
tp2704
(g6
(g10
S'\x00\x00\x00\x00'
p2705
tp2706
Rp2707
g6
(g10
S'\x16-\xc0@'
p2708
tp2709
Rp2710
tp2711
s(g20
I78
tp2712
(g6
(g10
S'\x00\x00\x00\x00'
p2713
tp2714
Rp2715
g6
(g10
S'\xbd\x88\xe6@'
p2716
tp2717
Rp2718
tp2719
s(g29
I64
tp2720
(g6
(g10
S'\x00\x00\x00\x00'
p2721
tp2722
Rp2723
g6
(g10
S'\xa77\x0fA'
p2724
tp2725
Rp2726
tp2727
s(g38
I66
tp2728
(g6
(g10
S'\x00\x00\x00\x00'
p2729
tp2730
Rp2731
g6
(g10
S'&\x00\xceA'
p2732
tp2733
Rp2734
tp2735
s(g4
I112
tp2736
(g6
(g10
S'\x00\x00\x00\x00'
p2737
tp2738
Rp2739
g6
(g10
S'g\xe8\xbd@'
p2740
tp2741
Rp2742
tp2743
s(g20
I84
tp2744
(g6
(g10
S'\x00\x00\x00\x00'
p2745
tp2746
Rp2747
g6
(g10
S'&\x7f!>'
p2748
tp2749
Rp2750
tp2751
s(g29
I110
tp2752
(g6
(g10
S'\x00\x00\x00\x00'
p2753
tp2754
Rp2755
g6
(g10
S'\xb5dfA'
p2756
tp2757
Rp2758
tp2759
s(g38
I100
tp2760
(g6
(g10
S'\x00\x00\x00\x00'
p2761
tp2762
Rp2763
g6
(g10
S'\xcb\xd5WA'
p2764
tp2765
Rp2766
tp2767
s(g4
I106
tp2768
(g6
(g10
S'\x00\x00\x00\x00'
p2769
tp2770
Rp2771
g6
(g10
S'\t\xe0\xcfA'
p2772
tp2773
Rp2774
tp2775
s(g20
I122
tp2776
(g6
(g10
S'\x00\x00\x00\x00'
p2777
tp2778
Rp2779
g6
(g10
S'\xa7\xeaVA'
p2780
tp2781
Rp2782
tp2783
s(g29
I116
tp2784
(g6
(g10
S'\x00\x00\x00\x00'
p2785
tp2786
Rp2787
g6
(g10
S'^m^@'
p2788
tp2789
Rp2790
tp2791
s(g38
I30
tp2792
(g6
(g10
S'\x00\x00\x00\x00'
p2793
tp2794
Rp2795
g6
(g10
S'p\xc8\x87A'
p2796
tp2797
Rp2798
tp2799
s(g38
I149
tp2800
(g6
(g10
S'\x00\x00\x00\x00'
p2801
tp2802
Rp2803
g6
(g10
S'\x05\xab\xf1A'
p2804
tp2805
Rp2806
tp2807
s(g4
I29
tp2808
(g6
(g10
S'\x00\x00\x00\x00'
p2809
tp2810
Rp2811
g6
(g10
S':\x0f\xa2A'
p2812
tp2813
Rp2814
tp2815
s(g20
I153
tp2816
(g6
(g10
S'\x00\x00\x00\x00'
p2817
tp2818
Rp2819
g6
(g10
S'g\xaaaA'
p2820
tp2821
Rp2822
tp2823
s(g4
I146
tp2824
(g6
(g10
S'\x00\x00\x00\x00'
p2825
tp2826
Rp2827
g6
(g10
S';\xac,A'
p2828
tp2829
Rp2830
tp2831
s(g20
I0
tp2832
(g6
(g10
S'\x00\x00\x00\x00'
p2833
tp2834
Rp2835
g6
(g10
S'\x91(ZA'
p2836
tp2837
Rp2838
tp2839
s(g29
I146
tp2840
(g6
(g10
S'\x00\x00\x00\x00'
p2841
tp2842
Rp2843
g6
(g10
S'\x0b\xfa\xb2A'
p2844
tp2845
Rp2846
tp2847
s(g38
I48
tp2848
(g6
(g10
S'\x00\x00\x00\x00'
p2849
tp2850
Rp2851
g6
(g10
S'\x00\xbe\xb7A'
p2852
tp2853
Rp2854
tp2855
s(g29
I27
tp2856
(g6
(g10
S'\x00\x00\x00\x00'
p2857
tp2858
Rp2859
g6
(g10
S'\xeb\xb3\xe5='
p2860
tp2861
Rp2862
tp2863
s(g38
I143
tp2864
(g6
(g10
S'\x00\x00\x00\x00'
p2865
tp2866
Rp2867
g6
(g10
S'\xe9\xf7\x99A'
p2868
tp2869
Rp2870
tp2871
s(g4
I55
tp2872
(g6
(g10
S'\x00\x00\x00\x00'
p2873
tp2874
Rp2875
g6
(g10
S'\xb8\xcfmA'
p2876
tp2877
Rp2878
tp2879
s(g20
I191
tp2880
(g6
(g10
S'\x00\x00\x00\x00'
p2881
tp2882
Rp2883
g6
(g10
S'\x90K*?'
p2884
tp2885
Rp2886
tp2887
s(g4
I140
tp2888
(g6
(g10
S'\x00\x00\x00\x00'
p2889
tp2890
Rp2891
g6
(g10
S'@T\xe1@'
p2892
tp2893
Rp2894
tp2895
s(g20
I38
tp2896
(g6
(g10
S'\x00\x00\x00\x00'
p2897
tp2898
Rp2899
g6
(g10
S'YPmA'
p2900
tp2901
Rp2902
tp2903
s(g29
I184
tp2904
(g6
(g10
S'\x00\x00\x00\x00'
p2905
tp2906
Rp2907
g6
(g10
S'\x83D\x95@'
p2908
tp2909
Rp2910
tp2911
s(g38
I42
tp2912
(g6
(g10
S'\x00\x00\x00\x00'
p2913
tp2914
Rp2915
g6
(g10
S'2\x1c\xbcA'
p2916
tp2917
Rp2918
tp2919
s(g29
I33
tp2920
(g6
(g10
S'\x00\x00\x00\x00'
p2921
tp2922
Rp2923
g6
(g10
S'\xb9I\x10B'
p2924
tp2925
Rp2926
tp2927
s(g38
I161
tp2928
(g6
(g10
S'\x00\x00\x00\x00'
p2929
tp2930
Rp2931
g6
(g10
S'\x8dZ\xc5A'
p2932
tp2933
Rp2934
tp2935
s(g4
I81
tp2936
(g6
(g10
S'\x00\x00\x00\x00'
p2937
tp2938
Rp2939
g6
(g10
S'\\\x8f\x1b>'
p2940
tp2941
Rp2942
tp2943
s(g4
I166
tp2944
(g6
(g10
S'\x00\x00\x00\x00'
p2945
tp2946
Rp2947
g6
(g10
S'\\\xe1\xa8A'
p2948
tp2949
Rp2950
tp2951
s(g29
I198
tp2952
(g6
(g10
S'\x00\x00\x00\x00'
p2953
tp2954
Rp2955
g6
(g10
S'\xf3\x9b\x82A'
p2956
tp2957
Rp2958
tp2959
s(g29
I79
tp2960
(g6
(g10
S'\x00\x00\x00\x00'
p2961
tp2962
Rp2963
g6
(g10
S'\xe6VTA'
p2964
tp2965
Rp2966
tp2967
s(g38
I91
tp2968
(g6
(g10
S'\x00\x00\x00\x00'
p2969
tp2970
Rp2971
g6
(g10
S'\xe2feA'
p2972
tp2973
Rp2974
tp2975
s(g4
I75
tp2976
(g6
(g10
S'\x00\x00\x00\x00'
p2977
tp2978
Rp2979
g6
(g10
S'd\x0eqA'
p2980
tp2981
Rp2982
tp2983
s(g4
I192
tp2984
(g6
(g10
S'\x00\x00\x00\x00'
p2985
tp2986
Rp2987
g6
(g10
S'x\x15\x82A'
p2988
tp2989
Rp2990
tp2991
s(g20
I93
tp2992
(g6
(g10
S'\x00\x00\x00\x00'
p2993
tp2994
Rp2995
g6
(g10
S'\xc3\xf9\xae@'
p2996
tp2997
Rp2998
tp2999
s(g29
I85
tp3000
(g6
(g10
S'\x00\x00\x00\x00'
p3001
tp3002
Rp3003
g6
(g10
S'j\xd9I@'
p3004
tp3005
Rp3006
tp3007
s(g38
I125
tp3008
(g6
(g10
S'\x00\x00\x00\x00'
p3009
tp3010
Rp3011
g6
(g10
S'\x07\xde\x92A'
p3012
tp3013
Rp3014
tp3015
s(g4
I101
tp3016
(g6
(g10
S'\x00\x00\x00\x00'
p3017
tp3018
Rp3019
g6
(g10
S'\x9a\xdb\x07A'
p3020
tp3021
Rp3022
tp3023
s(g20
I99
tp3024
(g6
(g10
S'\x00\x00\x00\x00'
p3025
tp3026
Rp3027
g6
(g10
S'\x1e\xd3 A'
p3028
tp3029
Rp3030
tp3031
s(g29
I115
tp3032
(g6
(g10
S'\x00\x00\x00\x00'
p3033
tp3034
Rp3035
g6
(g10
S'\xf2\xa2x?'
p3036
tp3037
Rp3038
tp3039
s(g38
I23
tp3040
(g6
(g10
S'\x00\x00\x00\x00'
p3041
tp3042
Rp3043
g6
(g10
S'\xbf\xb4.A'
p3044
tp3045
Rp3046
tp3047
s(g4
I20
tp3048
(g6
(g10
S'\x00\x00\x00\x00'
p3049
tp3050
Rp3051
g6
(g10
S'\xafU9A'
p3052
tp3053
Rp3054
tp3055
s(g20
I158
tp3056
(g6
(g10
S'\x00\x00\x00\x00'
p3057
tp3058
Rp3059
g6
(g10
S'\xed\xd3\xff@'
p3060
tp3061
Rp3062
tp3063
s(g20
I9
tp3064
(g6
(g10
S'\x00\x00\x00\x00'
p3065
tp3066
Rp3067
g6
(g10
S'5\x80\xf6@'
p3068
tp3069
Rp3070
tp3071
s(g29
I153
tp3072
(g6
(g10
S'\x00\x00\x00\x00'
p3073
tp3074
Rp3075
g6
(g10
S'\xe9n\x1b?'
p3076
tp3077
Rp3078
tp3079
s(g38
I9
tp3080
(g6
(g10
S'\x00\x00\x00\x00'
p3081
tp3082
Rp3083
g6
(g10
S'\x15u\x8fA'
p3084
tp3085
Rp3086
tp3087
s(g29
I2
tp3088
(g6
(g10
S'\x00\x00\x00\x00'
p3089
tp3090
Rp3091
g6
(g10
S'\x1a\x92\x83A'
p3092
tp3093
Rp3094
tp3095
s(g38
I128
tp3096
(g6
(g10
S'\x00\x00\x00\x00'
p3097
tp3098
Rp3099
g6
(g10
S'?\xa6kA'
p3100
tp3101
Rp3102
tp3103
s(g4
I14
tp3104
(g6
(g10
S'\x00\x00\x00\x00'
p3105
tp3106
Rp3107
g6
(g10
S'X\xbeBA'
p3108
tp3109
Rp3110
tp3111
s(g20
I164
tp3112
(g6
(g10
S'\x00\x00\x00\x00'
p3113
tp3114
Rp3115
g6
(g10
S'\xd6\x85iA'
p3116
tp3117
Rp3118
tp3119
s(g4
I135
tp3120
(g6
(g10
S'\x00\x00\x00\x00'
p3121
tp3122
Rp3123
g6
(g10
S'\xb4\xf6\xbbA'
p3124
tp3125
Rp3126
tp3127
s(g20
I47
tp3128
(g6
(g10
S'\x00\x00\x00\x00'
p3129
tp3130
Rp3131
g6
(g10
S'\xac\xff\x82@'
p3132
tp3133
Rp3134
tp3135
s(g29
I167
tp3136
(g6
(g10
S'\x00\x00\x00\x00'
p3137
tp3138
Rp3139
g6
(g10
S'\xbfD\x12A'
p3140
tp3141
Rp3142
tp3143
s(g38
I35
tp3144
(g6
(g10
S'\x00\x00\x00\x00'
p3145
tp3146
Rp3147
g6
(g10
S'z\xfa[A'
p3148
tp3149
Rp3150
tp3151
s(g29
I40
tp3152
(g6
(g10
S'\x00\x00\x00\x00'
p3153
tp3154
Rp3155
g6
(g10
S'\xd7k\x8eA'
p3156
tp3157
Rp3158
tp3159
s(g38
I186
tp3160
(g6
(g10
S'\x00\x00\x00\x00'
p3161
tp3162
Rp3163
g6
(g10
S'\xe3+zA'
p3164
tp3165
Rp3166
tp3167
s(g4
I40
tp3168
(g6
(g10
S'\x00\x00\x00\x00'
p3169
tp3170
Rp3171
g6
(g10
S'\xcb;\xb4A'
p3172
tp3173
Rp3174
tp3175
s(g4
I161
tp3176
(g6
(g10
S'\x00\x00\x00\x00'
p3177
tp3178
Rp3179
g6
(g10
S'\xdb\xb6\x15A'
p3180
tp3181
Rp3182
tp3183
s(g20
I53
tp3184
(g6
(g10
S'\x00\x00\x00\x00'
p3185
tp3186
Rp3187
g6
(g10
S'\xbf\xfd\x8aA'
p3188
tp3189
Rp3190
tp3191
s(g29
I54
tp3192
(g6
(g10
S'\x00\x00\x00\x00'
p3193
tp3194
Rp3195
g6
(g10
S'1x}A'
p3196
tp3197
Rp3198
tp3199
s(g38
I92
tp3200
(g6
(g10
S'\x00\x00\x00\x00'
p3201
tp3202
Rp3203
g6
(g10
S'\xd4\xa7rA'
p3204
tp3205
Rp3206
tp3207
s(g4
I66
tp3208
(g6
(g10
S'\x00\x00\x00\x00'
p3209
tp3210
Rp3211
g6
(g10
S'e\x18ZA'
p3212
tp3213
Rp3214
tp3215
s(g495
I1
tp3216
(g6
(g10
S'\x00\x00\x00\x00'
p3217
tp3218
Rp3219
g6
(g10
S'\x00\x00\x80?'
p3220
tp3221
Rp3222
tp3223
s(g20
I66
tp3224
(g6
(g10
S'\x00\x00\x00\x00'
p3225
tp3226
Rp3227
g6
(g10
S"'#_@"
p3228
tp3229
Rp3230
tp3231
s(g29
I92
tp3232
(g6
(g10
S'\x00\x00\x00\x00'
p3233
tp3234
Rp3235
g6
(g10
S'<z\x81A'
p3236
tp3237
Rp3238
tp3239
s(g38
I118
tp3240
(g6
(g10
S'\x00\x00\x00\x00'
p3241
tp3242
Rp3243
g6
(g10
S'\x17\xa5\x8dA'
p3244
tp3245
Rp3246
tp3247
s(g4
I124
tp3248
(g6
(g10
S'\x00\x00\x00\x00'
p3249
tp3250
Rp3251
g6
(g10
S'\x98\xdf\x18A'
p3252
tp3253
Rp3254
tp3255
s(g20
I104
tp3256
(g6
(g10
S'\x00\x00\x00\x00'
p3257
tp3258
Rp3259
g6
(g10
S'\xe6H\x8cA'
p3260
tp3261
Rp3262
tp3263
s(g29
I122
tp3264
(g6
(g10
S'\x00\x00\x00\x00'
p3265
tp3266
Rp3267
g6
(g10
S'\xce\\_@'
p3268
tp3269
Rp3270
tp3271
s(g38
I104
tp3272
(g6
(g10
S'\x00\x00\x00\x00'
p3273
tp3274
Rp3275
g6
(g10
S'\x03\xa5\x8bA'
p3276
tp3277
Rp3278
tp3279
s(g20
I135
tp3280
(g6
(g10
S'\x00\x00\x00\x00'
p3281
tp3282
Rp3283
g6
(g10
S'\xad.\xb5@'
p3284
tp3285
Rp3286
tp3287
s(g20
I14
tp3288
(g6
(g10
S'\x00\x00\x00\x00'
p3289
tp3290
Rp3291
g6
(g10
S'\xaa,GA'
p3292
tp3293
Rp3294
tp3295
s(g29
I128
tp3296
(g6
(g10
S'\x00\x00\x00\x00'
p3297
tp3298
Rp3299
g6
(g10
S'\t\xb2PA'
p3300
tp3301
Rp3302
tp3303
s(g38
I2
tp3304
(g6
(g10
S'\x00\x00\x00\x00'
p3305
tp3306
Rp3307
g6
(g10
S'+2\x82A'
p3308
tp3309
Rp3310
tp3311
s(g29
I9
tp3312
(g6
(g10
S'\x00\x00\x00\x00'
p3313
tp3314
Rp3315
g6
(g10
S'\x07\xda\xc1@'
p3316
tp3317
Rp3318
tp3319
s(g38
I153
tp3320
(g6
(g10
S'\x00\x00\x00\x00'
p3321
tp3322
Rp3323
g6
(g10
S'2\tRA'
p3324
tp3325
Rp3326
tp3327
s(g4
I9
tp3328
(g6
(g10
S'\x00\x00\x00\x00'
p3329
tp3330
Rp3331
g6
(g10
S'1\xbf\xf1@'
p3332
tp3333
Rp3334
tp3335
s(g20
I173
tp3336
(g6
(g10
S'\x00\x00\x00\x00'
p3337
tp3338
Rp3339
g6
(g10
S'\x0c\x10RA'
p3340
tp3341
Rp3342
tp3343
s(g4
I158
tp3344
(g6
(g10
S'\x00\x00\x00\x00'
p3345
tp3346
Rp3347
g6
(g10
S'\xa1\xa2\xeb@'
p3348
tp3349
Rp3350
tp3351
s(g20
I20
tp3352
(g6
(g10
S'\x00\x00\x00\x00'
p3353
tp3354
Rp3355
g6
(g10
S'\xec\xcf\x90@'
p3356
tp3357
Rp3358
tp3359
s(g29
I174
tp3360
(g6
(g10
S'\x00\x00\x00\x00'
p3361
tp3362
Rp3363
g6
(g10
S'\x88\x85\xd6A'
p3364
tp3365
Rp3366
tp3367
s(g38
I36
tp3368
(g6
(g10
S'\x00\x00\x00\x00'
p3369
tp3370
Rp3371
g6
(g10
S'\x07\xb8\x84A'
p3372
tp3373
Rp3374
tp3375
s(g29
I23
tp3376
(g6
(g10
S'\x00\x00\x00\x00'
p3377
tp3378
Rp3379
g6
(g10
S'\x08\x8c\x95A'
p3380
tp3381
Rp3382
tp3383
s(g38
I179
tp3384
(g6
(g10
S'\x00\x00\x00\x00'
p3385
tp3386
Rp3387
g6
(g10
S'*\xb8\x98A'
p3388
tp3389
Rp3390
tp3391
s(g4
I35
tp3392
(g6
(g10
S'\x00\x00\x00\x00'
p3393
tp3394
Rp3395
g6
(g10
S'\x145\rA'
p3396
tp3397
Rp3398
tp3399
s(g20
I179
tp3400
(g6
(g10
S'\x00\x00\x00\x00'
p3401
tp3402
Rp3403
g6
(g10
S')\xb3}@'
p3404
tp3405
Rp3406
tp3407
s(g4
I184
tp3408
(g6
(g10
S'\x00\x00\x00\x00'
p3409
tp3410
Rp3411
g6
(g10
S'\xb24^A'
p3412
tp3413
Rp3414
tp3415
s(g20
I58
tp3416
(g6
(g10
S'\x00\x00\x00\x00'
p3417
tp3418
Rp3419
g6
(g10
S'\xda\x9c/A'
p3420
tp3421
Rp3422
tp3423
s(g29
I180
tp3424
(g6
(g10
S'\x00\x00\x00\x00'
p3425
tp3426
Rp3427
g6
(g10
S'\x8d\xe4\xbbA'
p3428
tp3429
Rp3430
tp3431
s(g29
I61
tp3432
(g6
(g10
S'\x00\x00\x00\x00'
p3433
tp3434
Rp3435
g6
(g10
S'2\xa6\xb2A'
p3436
tp3437
Rp3438
tp3439
s(g38
I85
tp3440
(g6
(g10
S'\x00\x00\x00\x00'
p3441
tp3442
Rp3443
g6
(g10
S'\ru\x8aA'
p3444
tp3445
Rp3446
tp3447
s(g4
I93
tp3448
(g6
(g10
S'\x00\x00\x00\x00'
p3449
tp3450
Rp3451
g6
(g10
S'\xdaF\x92@'
p3452
tp3453
Rp3454
tp3455
s(g20
I192
tp3456
(g6
(g10
S'\x00\x00\x00\x00'
p3457
tp3458
Rp3459
g6
(g10
S'\xc6\xe8,A'
p3460
tp3461
Rp3462
tp3463
s(g20
I75
tp3464
(g6
(g10
S'\x00\x00\x00\x00'
p3465
tp3466
Rp3467
g6
(g10
S'\xfd\xb3\x0cA'
p3468
tp3469
Rp3470
tp3471
s(g29
I91
tp3472
(g6
(g10
S'\x00\x00\x00\x00'
p3473
tp3474
Rp3475
g6
(g10
S'\xdaB\xcaA'
p3476
tp3477
Rp3478
tp3479
s(g38
I79
tp3480
(g6
(g10
S'\x00\x00\x00\x00'
p3481
tp3482
Rp3483
g6
(g10
S'\xd9F\x19A'
p3484
tp3485
Rp3486
tp3487
s(g4
I119
tp3488
(g6
(g10
S'\x00\x00\x00\x00'
p3489
tp3490
Rp3491
g6
(g10
S'/_5A'
p3492
tp3493
Rp3494
tp3495
s(g38
I198
tp3496
(g6
(g10
S'\x00\x00\x00\x00'
p3497
tp3498
Rp3499
g6
(g10
S'\xd7\x9erA'
p3500
tp3501
Rp3502
tp3503
s(g20
I81
tp3504
(g6
(g10
S'\x00\x00\x00\x00'
p3505
tp3506
Rp3507
g6
(g10
S'\xb6\xd2\xa9@'
p3508
tp3509
Rp3510
tp3511
s(g29
I97
tp3512
(g6
(g10
S'\x00\x00\x00\x00'
p3513
tp3514
Rp3515
g6
(g10
S'^\x92\xaaA'
p3516
tp3517
Rp3518
tp3519
s(g38
I97
tp3520
(g6
(g10
S'\x00\x00\x00\x00'
p3521
tp3522
Rp3523
g6
(g10
S'\x8fedA'
p3524
tp3525
Rp3526
tp3527
s(g20
I140
tp3528
(g6
(g10
S'\x00\x00\x00\x00'
p3529
tp3530
Rp3531
g6
(g10
S'\xdc\x93\x88A'
p3532
tp3533
Rp3534
tp3535
s(g20
I119
tp3536
(g6
(g10
S'\x00\x00\x00\x00'
p3537
tp3538
Rp3539
g6
(g10
S'\xe9wwA'
p3540
tp3541
Rp3542
tp3543
s(g29
I143
tp3544
(g6
(g10
S'\x00\x00\x00\x00'
p3545
tp3546
Rp3547
g6
(g10
S'\xdeQ\x92@'
p3548
tp3549
Rp3550
tp3551
s(g38
I27
tp3552
(g6
(g10
S'\x00\x00\x00\x00'
p3553
tp3554
Rp3555
g6
(g10
S'qj\xeaA'
p3556
tp3557
Rp3558
tp3559
s(g38
I146
tp3560
(g6
(g10
S'\x00\x00\x00\x00'
p3561
tp3562
Rp3563
g6
(g10
S'\xa3\xbc\xa6A'
p3564
tp3565
Rp3566
tp3567
s(g4
I0
tp3568
(g6
(g10
S'\x00\x00\x00\x00'
p3569
tp3570
Rp3571
g6
(g10
S'\xea]=A'
p3572
tp3573
Rp3574
tp3575
s(g20
I146
tp3576
(g6
(g10
S'\x00\x00\x00\x00'
p3577
tp3578
Rp3579
g6
(g10
S'k\xcf\x8cA'
p3580
tp3581
Rp3582
tp3583
s(g4
I153
tp3584
(g6
(g10
S'\x00\x00\x00\x00'
p3585
tp3586
Rp3587
g6
(g10
S'GBJA'
p3588
tp3589
Rp3590
tp3591
s(g20
I29
tp3592
(g6
(g10
S'\x00\x00\x00\x00'
p3593
tp3594
Rp3595
g6
(g10
S'\x1c\x86\x02A'
p3596
tp3597
Rp3598
tp3599
s(g29
I149
tp3600
(g6
(g10
S'\x00\x00\x00\x00'
p3601
tp3602
Rp3603
g6
(g10
S'\x1e\xb7\xb1A'
p3604
tp3605
Rp3606
tp3607
s(g38
I61
tp3608
(g6
(g10
S'\x00\x00\x00\x00'
p3609
tp3610
Rp3611
g6
(g10
S'\xee\xab\x83A'
p3612
tp3613
Rp3614
tp3615
s(g29
I30
tp3616
(g6
(g10
S'\x00\x00\x00\x00'
p3617
tp3618
Rp3619
g6
(g10
S'\xaei\x8bA'
p3620
tp3621
Rp3622
tp3623
s(g38
I180
tp3624
(g6
(g10
S'\x00\x00\x00\x00'
p3625
tp3626
Rp3627
g6
(g10
S'Q\x88BA'
p3628
tp3629
Rp3630
tp3631
s(g4
I58
tp3632
(g6
(g10
S'\x00\x00\x00\x00'
p3633
tp3634
Rp3635
g6
(g10
S'!=\x04A'
p3636
tp3637
Rp3638
tp3639
s(g20
I184
tp3640
(g6
(g10
S'\x00\x00\x00\x00'
p3641
tp3642
Rp3643
g6
(g10
S'\xe3\xb3\x8d@'
p3644
tp3645
Rp3646
tp3647
s(g4
I179
tp3648
(g6
(g10
S'\x00\x00\x00\x00'
p3649
tp3650
Rp3651
g6
(g10
S'xWPA'
p3652
tp3653
Rp3654
tp3655
s(g20
I35
tp3656
(g6
(g10
S'\x00\x00\x00\x00'
p3657
tp3658
Rp3659
g6
(g10
S'}\xd2\x8b@'
p3660
tp3661
Rp3662
tp3663
s(g29
I179
tp3664
(g6
(g10
S'\x00\x00\x00\x00'
p3665
tp3666
Rp3667
g6
(g10
S'\xc9\xa2\\A'
p3668
tp3669
Rp3670
tp3671
s(g29
I36
tp3672
(g6
(g10
S'\x00\x00\x00\x00'
p3673
tp3674
Rp3675
g6
(g10
S'\x1d\x08<?'
p3676
tp3677
Rp3678
tp3679
s(g38
I174
tp3680
(g6
(g10
S'\x00\x00\x00\x00'
p3681
tp3682
Rp3683
g6
(g10
S'a\x9aRA'
p3684
tp3685
Rp3686
tp3687
s(g4
I84
tp3688
(g6
(g10
S'\x00\x00\x00\x00'
p3689
tp3690
Rp3691
g6
(g10
S'\xabO\xb9A'
p3692
tp3693
Rp3694
tp3695
s(g4
I173
tp3696
(g6
(g10
S'\x00\x00\x00\x00'
p3697
tp3698
Rp3699
g6
(g10
S',\xae\xee@'
p3700
tp3701
Rp3702
tp3703
s(g29
I66
tp3704
(g6
(g10
S'\x00\x00\x00\x00'
p3705
tp3706
Rp3707
g6
(g10
S'\xa8\xee8A'
p3708
tp3709
Rp3710
tp3711
s(g38
I64
tp3712
(g6
(g10
S'\x00\x00\x00\x00'
p3713
tp3714
Rp3715
g6
(g10
S'[b\x9fA'
p3716
tp3717
Rp3718
tp3719
s(g4
I78
tp3720
(g6
(g10
S'\x00\x00\x00\x00'
p3721
tp3722
Rp3723
g6
(g10
S'\xbc"\xfcA'
p3724
tp3725
Rp3726
tp3727
s(g4
I199
tp3728
(g6
(g10
S'\x00\x00\x00\x00'
p3729
tp3730
Rp3731
g6
(g10
S'>Q\x99A'
p3732
tp3733
Rp3734
tp3735
s(g20
I86
tp3736
(g6
(g10
S'\x00\x00\x00\x00'
p3737
tp3738
Rp3739
g6
(g10
S'\xbf.o@'
p3740
tp3741
Rp3742
tp3743
s(g29
I104
tp3744
(g6
(g10
S'\x00\x00\x00\x00'
p3745
tp3746
Rp3747
g6
(g10
S'n;\x06A'
p3748
tp3749
Rp3750
tp3751
s(g38
I122
tp3752
(g6
(g10
S'\x00\x00\x00\x00'
p3753
tp3754
Rp3755
g6
(g10
S'Ug\x90A'
p3756
tp3757
Rp3758
tp3759
s(g4
I104
tp3760
(g6
(g10
S'\x00\x00\x00\x00'
p3761
tp3762
Rp3763
g6
(g10
S'\xb1\xbdjA'
p3764
tp3765
Rp3766
tp3767
s(g20
I124
tp3768
(g6
(g10
S'\x00\x00\x00\x00'
p3769
tp3770
Rp3771
g6
(g10
S'\xa7\xdb\xa5A'
p3772
tp3773
Rp3774
tp3775
s(g29
I118
tp3776
(g6
(g10
S'\x00\x00\x00\x00'
p3777
tp3778
Rp3779
g6
(g10
S'F\xd3\xc1?'
p3780
tp3781
Rp3782
tp3783
s(g38
I28
tp3784
(g6
(g10
S'\x00\x00\x00\x00'
p3785
tp3786
Rp3787
g6
(g10
S'\x927\x8aA'
p3788
tp3789
Rp3790
tp3791
s(g4
I27
tp3792
(g6
(g10
S'\x00\x00\x00\x00'
p3793
tp3794
Rp3795
g6
(g10
S'7<UA'
p3796
tp3797
Rp3798
tp3799
s(g20
I155
tp3800
(g6
(g10
S'\x00\x00\x00\x00'
p3801
tp3802
Rp3803
g6
(g10
S'P:\xe9?'
p3804
tp3805
Rp3806
tp3807
s(g4
I144
tp3808
(g6
(g10
S'\x00\x00\x00\x00'
p3809
tp3810
Rp3811
g6
(g10
S'\x9e\x8f\x01A'
p3812
tp3813
Rp3814
tp3815
s(g20
I2
tp3816
(g6
(g10
S'\x00\x00\x00\x00'
p3817
tp3818
Rp3819
g6
(g10
S'f\x93t@'
p3820
tp3821
Rp3822
tp3823
s(g29
I156
tp3824
(g6
(g10
S'\x00\x00\x00\x00'
p3825
tp3826
Rp3827
g6
(g10
S'\x16\xc5!A'
p3828
tp3829
Rp3830
tp3831
s(g38
I54
tp3832
(g6
(g10
S'\x00\x00\x00\x00'
p3833
tp3834
Rp3835
g6
(g10
S'\xd7\x1aVA'
p3836
tp3837
Rp3838
tp3839
s(g29
I5
tp3840
(g6
(g10
S'\x00\x00\x00\x00'
p3841
tp3842
Rp3843
g6
(g10
S'sD A'
p3844
tp3845
Rp3846
tp3847
s(g38
I141
tp3848
(g6
(g10
S'\x00\x00\x00\x00'
p3849
tp3850
Rp3851
g6
(g10
S'>8\xafA'
p3852
tp3853
Rp3854
tp3855
s(g4
I53
tp3856
(g6
(g10
S'\x00\x00\x00\x00'
p3857
tp3858
Rp3859
g6
(g10
S'\x1d\xe20A'
p3860
tp3861
Rp3862
tp3863
s(g20
I161
tp3864
(g6
(g10
S'\x00\x00\x00\x00'
p3865
tp3866
Rp3867
g6
(g10
S'1\x16w@'
p3868
tp3869
Rp3870
tp3871
s(g4
I138
tp3872
(g6
(g10
S'\x00\x00\x00\x00'
p3873
tp3874
Rp3875
g6
(g10
S',\xb1uA'
p3876
tp3877
Rp3878
tp3879
s(g20
I40
tp3880
(g6
(g10
S'\x00\x00\x00\x00'
p3881
tp3882
Rp3883
g6
(g10
S'\x18\x8cG@'
p3884
tp3885
Rp3886
tp3887
s(g29
I186
tp3888
(g6
(g10
S'\x00\x00\x00\x00'
p3889
tp3890
Rp3891
g6
(g10
S'K\xa0HA'
p3892
tp3893
Rp3894
tp3895
s(g38
I40
tp3896
(g6
(g10
S'\x00\x00\x00\x00'
p3897
tp3898
Rp3899
g6
(g10
S'\xcf\xc1\xc1A'
p3900
tp3901
Rp3902
tp3903
s(g29
I35
tp3904
(g6
(g10
S'\x00\x00\x00\x00'
p3905
tp3906
Rp3907
g6
(g10
S'\x96a\x1fA'
p3908
tp3909
Rp3910
tp3911
s(g38
I167
tp3912
(g6
(g10
S'\x00\x00\x00\x00'
p3913
tp3914
Rp3915
g6
(g10
S'\xa0\x06\xd6A'
p3916
tp3917
Rp3918
tp3919
s(g4
I47
tp3920
(g6
(g10
S'\x00\x00\x00\x00'
p3921
tp3922
Rp3923
g6
(g10
S'\x03\x03\xac@'
p3924
tp3925
Rp3926
tp3927
s(g4
I164
tp3928
(g6
(g10
S'\x00\x00\x00\x00'
p3929
tp3930
Rp3931
g6
(g10
S'%aRA'
p3932
tp3933
Rp3934
tp3935
s(g29
I192
tp3936
(g6
(g10
S'\x00\x00\x00\x00'
p3937
tp3938
Rp3939
g6
(g10
S'H\n\x83?'
p3940
tp3941
Rp3942
tp3943
s(g29
I73
tp3944
(g6
(g10
S'\x00\x00\x00\x00'
p3945
tp3946
Rp3947
g6
(g10
S'x\xdfEA'
p3948
tp3949
Rp3950
tp3951
s(g38
I89
tp3952
(g6
(g10
S'\x00\x00\x00\x00'
p3953
tp3954
Rp3955
g6
(g10
S'\x0fz\x86A'
p3956
tp3957
Rp3958
tp3959
s(g4
I73
tp3960
(g6
(g10
S'\x00\x00\x00\x00'
p3961
tp3962
Rp3963
g6
(g10
S'IE\xa1A'
p3964
tp3965
Rp3966
tp3967
s(g20
I95
tp3968
(g6
(g10
S'\x00\x00\x00\x00'
p3969
tp3970
Rp3971
g6
(g10
S'\xbf\xe28A'
p3972
tp3973
Rp3974
tp3975
s(g29
I87
tp3976
(g6
(g10
S'\x00\x00\x00\x00'
p3977
tp3978
Rp3979
g6
(g10
S'\xd0X\xb0@'
p3980
tp3981
Rp3982
tp3983
s(g38
I115
tp3984
(g6
(g10
S'\x00\x00\x00\x00'
p3985
tp3986
Rp3987
g6
(g10
S'*hdA'
p3988
tp3989
Rp3990
tp3991
s(g4
I99
tp3992
(g6
(g10
S'\x00\x00\x00\x00'
p3993
tp3994
Rp3995
g6
(g10
S'\xe6>\x05A'
p3996
tp3997
Rp3998
tp3999
s(g20
I101
tp4000
(g6
(g10
S'\x00\x00\x00\x00'
p4001
tp4002
Rp4003
g6
(g10
S'#\xab\x0fA'
p4004
tp4005
Rp4006
tp4007
s(g29
I125
tp4008
(g6
(g10
S'\x00\x00\x00\x00'
p4009
tp4010
Rp4011
g6
(g10
S'\x10j\x95A'
p4012
tp4013
Rp4014
tp4015
s(g38
I21
tp4016
(g6
(g10
S'\x00\x00\x00\x00'
p4017
tp4018
Rp4019
g6
(g10
S'j}\xbfA'
p4020
tp4021
Rp4022
tp4023
s(g4
I18
tp4024
(g6
(g10
S'\x00\x00\x00\x00'
p4025
tp4026
Rp4027
g6
(g10
S'\xb7\x99+A'
p4028
tp4029
Rp4030
tp4031
s(g20
I128
tp4032
(g6
(g10
S'\x00\x00\x00\x00'
p4033
tp4034
Rp4035
g6
(g10
S'\x9b\xed\xe1@'
p4036
tp4037
Rp4038
tp4039
s(g20
I11
tp4040
(g6
(g10
S'\x00\x00\x00\x00'
p4041
tp4042
Rp4043
g6
(g10
S'l\xc9\xc2A'
p4044
tp4045
Rp4046
tp4047
s(g29
I155
tp4048
(g6
(g10
S'\x00\x00\x00\x00'
p4049
tp4050
Rp4051
g6
(g10
S'\xac\xad\x95A'
p4052
tp4053
Rp4054
tp4055
s(g38
I15
tp4056
(g6
(g10
S'\x00\x00\x00\x00'
p4057
tp4058
Rp4059
g6
(g10
S'+\xb3\xa0A'
p4060
tp4061
Rp4062
tp4063
s(g29
I12
tp4064
(g6
(g10
S'\x00\x00\x00\x00'
p4065
tp4066
Rp4067
g6
(g10
S'\xadk\xb5?'
p4068
tp4069
Rp4070
tp4071
s(g38
I134
tp4072
(g6
(g10
S'\x00\x00\x00\x00'
p4073
tp4074
Rp4075
g6
(g10
S'\x0er\x83A'
p4076
tp4077
Rp4078
tp4079
s(g4
I12
tp4080
(g6
(g10
S'\x00\x00\x00\x00'
p4081
tp4082
Rp4083
g6
(g10
S'Ha\xacA'
p4084
tp4085
Rp4086
tp4087
s(g20
I166
tp4088
(g6
(g10
S'\x00\x00\x00\x00'
p4089
tp4090
Rp4091
g6
(g10
S'\x8c\x0c\xba@'
p4092
tp4093
Rp4094
tp4095
s(g4
I133
tp4096
(g6
(g10
S'\x00\x00\x00\x00'
p4097
tp4098
Rp4099
g6
(g10
S'P5CA'
p4100
tp4101
Rp4102
tp4103
s(g20
I17
tp4104
(g6
(g10
S'\x00\x00\x00\x00'
p4105
tp4106
Rp4107
g6
(g10
S'=\x15\x87@'
p4108
tp4109
Rp4110
tp4111
s(g29
I161
tp4112
(g6
(g10
S'\x00\x00\x00\x00'
p4113
tp4114
Rp4115
g6
(g10
S'\x04ciA'
p4116
tp4117
Rp4118
tp4119
s(g38
I33
tp4120
(g6
(g10
S'\x00\x00\x00\x00'
p4121
tp4122
Rp4123
g6
(g10
S'd]\xa3A'
p4124
tp4125
Rp4126
tp4127
s(g29
I42
tp4128
(g6
(g10
S'\x00\x00\x00\x00'
p4129
tp4130
Rp4131
g6
(g10
S')QTA'
p4132
tp4133
Rp4134
tp4135
s(g38
I184
tp4136
(g6
(g10
S'\x00\x00\x00\x00'
p4137
tp4138
Rp4139
g6
(g10
S'@s\xa5A'
p4140
tp4141
Rp4142
tp4143
s(g4
I38
tp4144
(g6
(g10
S'\x00\x00\x00\x00'
p4145
tp4146
Rp4147
g6
(g10
S'!:\xacA'
p4148
tp4149
Rp4150
tp4151
s(g4
I191
tp4152
(g6
(g10
S'\x00\x00\x00\x00'
p4153
tp4154
Rp4155
g6
(g10
S'\x1a\xe2EA'
p4156
tp4157
Rp4158
tp4159
s(g20
I55
tp4160
(g6
(g10
S'\x00\x00\x00\x00'
p4161
tp4162
Rp4163
g6
(g10
S'\xc8\xd1>A'
p4164
tp4165
Rp4166
tp4167
s(g29
I48
tp4168
(g6
(g10
S'\x00\x00\x00\x00'
p4169
tp4170
Rp4171
g6
(g10
S'\x14~\xfbA'
p4172
tp4173
Rp4174
tp4175
s(g38
I82
tp4176
(g6
(g10
S'\x00\x00\x00\x00'
p4177
tp4178
Rp4179
g6
(g10
S'\xdf\x1b\x83A'
p4180
tp4181
Rp4182
tp4183
s(g4
I64
tp4184
(g6
(g10
S'\x00\x00\x00\x00'
p4185
tp4186
Rp4187
g6
(g10
S'\xcc|a@'
p4188
tp4189
Rp4190
tp4191
s(g20
I68
tp4192
(g6
(g10
S'\x00\x00\x00\x00'
p4193
tp4194
Rp4195
g6
(g10
S'hZ\xa3?'
p4196
tp4197
Rp4198
tp4199
s(g29
I94
tp4200
(g6
(g10
S'\x00\x00\x00\x00'
p4201
tp4202
Rp4203
g6
(g10
S'AugA'
p4204
tp4205
Rp4206
tp4207
s(g38
I116
tp4208
(g6
(g10
S'\x00\x00\x00\x00'
p4209
tp4210
Rp4211
g6
(g10
S'\x89\xf5\x00B'
p4212
tp4213
Rp4214
tp4215
s(g4
I122
tp4216
(g6
(g10
S'\x00\x00\x00\x00'
p4217
tp4218
Rp4219
g6
(g10
S'\xd0\xfc\x1cA'
p4220
tp4221
Rp4222
tp4223
s(g38
I195
tp4224
(g6
(g10
S'\x00\x00\x00\x00'
p4225
tp4226
Rp4227
g6
(g10
S'\x15\x9e\xa1A'
p4228
tp4229
Rp4230
tp4231
s(g20
I106
tp4232
(g6
(g10
S'\x00\x00\x00\x00'
p4233
tp4234
Rp4235
g6
(g10
S'\xed\xd3-?'
p4236
tp4237
Rp4238
tp4239
s(g29
I100
tp4240
(g6
(g10
S'\x00\x00\x00\x00'
p4241
tp4242
Rp4243
g6
(g10
S'\xb5^YA'
p4244
tp4245
Rp4246
tp4247
s(g38
I110
tp4248
(g6
(g10
S'\x00\x00\x00\x00'
p4249
tp4250
Rp4251
g6
(g10
S'\xd6\xc5\xc5A'
p4252
tp4253
Rp4254
tp4255
s(g20
I137
tp4256
(g6
(g10
S'\x00\x00\x00\x00'
p4257
tp4258
Rp4259
g6
(g10
S'B\x96\x0b@'
p4260
tp4261
Rp4262
tp4263
s(g20
I112
tp4264
(g6
(g10
S'\x00\x00\x00\x00'
p4265
tp4266
Rp4267
g6
(g10
S'G\x86&A'
p4268
tp4269
Rp4270
tp4271
s(g29
I130
tp4272
(g6
(g10
S'\x00\x00\x00\x00'
p4273
tp4274
Rp4275
g6
(g10
S'\x04z\xd4@'
p4276
tp4277
Rp4278
tp4279
s(g38
I0
tp4280
(g6
(g10
S'\x00\x00\x00\x00'
p4281
tp4282
Rp4283
g6
(g10
S'P\x02\xcaA'
p4284
tp4285
Rp4286
tp4287
s(g29
I11
tp4288
(g6
(g10
S'\x00\x00\x00\x00'
p4289
tp4290
Rp4291
g6
(g10
S'%u\rA'
p4292
tp4293
Rp4294
tp4295
s(g38
I159
tp4296
(g6
(g10
S'\x00\x00\x00\x00'
p4297
tp4298
Rp4299
g6
(g10
S'j\x80\xb8A'
p4300
tp4301
Rp4302
tp4303
s(g4
I7
tp4304
(g6
(g10
S'\x00\x00\x00\x00'
p4305
tp4306
Rp4307
g6
(g10
S'\x86\x90\xb4A'
p4308
tp4309
Rp4310
tp4311
s(g20
I175
tp4312
(g6
(g10
S'\x00\x00\x00\x00'
p4313
tp4314
Rp4315
g6
(g10
S'5\x0b$A'
p4316
tp4317
Rp4318
tp4319
s(g4
I156
tp4320
(g6
(g10
S'\x00\x00\x00\x00'
p4321
tp4322
Rp4323
g6
(g10
S'\x11/[A'
p4324
tp4325
Rp4326
tp4327
s(g20
I22
tp4328
(g6
(g10
S'\x00\x00\x00\x00'
p4329
tp4330
Rp4331
g6
(g10
S'\xae\xc9\xd5@'
p4332
tp4333
Rp4334
tp4335
s(g29
I168
tp4336
(g6
(g10
S'\x00\x00\x00\x00'
p4337
tp4338
Rp4339
g6
(g10
S'\xc2\x10\x95A'
p4340
tp4341
Rp4342
tp4343
s(g38
I58
tp4344
(g6
(g10
S'\x00\x00\x00\x00'
p4345
tp4346
Rp4347
g6
(g10
S'\xbd\xb5\x9cA'
p4348
tp4349
Rp4350
tp4351
s(g29
I17
tp4352
(g6
(g10
S'\x00\x00\x00\x00'
p4353
tp4354
Rp4355
g6
(g10
S'\xd6G\x05A'
p4356
tp4357
Rp4358
tp4359
s(g38
I177
tp4360
(g6
(g10
S'\x00\x00\x00\x00'
p4361
tp4362
Rp4363
g6
(g10
S'\xf2nXA'
p4364
tp4365
Rp4366
tp4367
s(g4
I33
tp4368
(g6
(g10
S'\x00\x00\x00\x00'
p4369
tp4370
Rp4371
g6
(g10
S'\x87SnA'
p4372
tp4373
Rp4374
tp4375
s(g20
I181
tp4376
(g6
(g10
S'\x00\x00\x00\x00'
p4377
tp4378
Rp4379
g6
(g10
S'\xe8\xef\xd0@'
p4380
tp4381
Rp4382
tp4383
s(g4
I182
tp4384
(g6
(g10
S'\x00\x00\x00\x00'
p4385
tp4386
Rp4387
g6
(g10
S'\x89\x0b\x1eA'
p4388
tp4389
Rp4390
tp4391
s(g20
I60
tp4392
(g6
(g10
S'\xbe\xcd\x9c>'
p4393
tp4394
Rp4395
g6
(g10
S'\x9fs\xcaA'
p4396
tp4397
Rp4398
tp4399
s(g29
I182
tp4400
(g6
(g10
S'\x00\x00\x00\x00'
p4401
tp4402
Rp4403
g6
(g10
S'\\\xd2\x01A'
p4404
tp4405
Rp4406
tp4407
s(g29
I63
tp4408
(g6
(g10
S'\x00\x00\x00\x00'
p4409
tp4410
Rp4411
g6
(g10
S'\xfei"A'
p4412
tp4413
Rp4414
tp4415
s(g38
I171
tp4416
(g6
(g10
S'\x00\x00\x00\x00'
p4417
tp4418
Rp4419
g6
(g10
S'\xb6\xe5\xa3A'
p4420
tp4421
Rp4422
tp4423
s(g4
I91
tp4424
(g6
(g10
S'\x00\x00\x00\x00'
p4425
tp4426
Rp4427
g6
(g10
S'\x0eC\x1cA'
p4428
tp4429
Rp4430
tp4431
s(g20
I194
tp4432
(g6
(g10
S'\x00\x00\x00\x00'
p4433
tp4434
Rp4435
g6
(g10
S'y\x9d1A'
p4436
tp4437
Rp4438
tp4439
s(g20
I77
tp4440
(g6
(g10
S'\x00\x00\x00\x00'
p4441
tp4442
Rp4443
g6
(g10
S'8\xc8\xa8@'
p4444
tp4445
Rp4446
tp4447
s(g29
I69
tp4448
(g6
(g10
S'\x00\x00\x00\x00'
p4449
tp4450
Rp4451
g6
(g10
S'\xd0.\xe4@'
p4452
tp4453
Rp4454
tp4455
s(g38
I77
tp4456
(g6
(g10
S'\x00\x00\x00\x00'
p4457
tp4458
Rp4459
g6
(g10
S'\xcf\xdc\x82A'
p4460
tp4461
Rp4462
tp4463
s(g4
I117
tp4464
(g6
(g10
S'\x00\x00\x00\x00'
p4465
tp4466
Rp4467
g6
(g10
S'Zr\x15A'
p4468
tp4469
Rp4470
tp4471
s(g38
I196
tp4472
(g6
(g10
S'\x00\x00\x00\x00'
p4473
tp4474
Rp4475
g6
(g10
S'5\x95DA'
p4476
tp4477
Rp4478
tp4479
s(g20
I83
tp4480
(g6
(g10
S'\x00\x00\x00\x00'
p4481
tp4482
Rp4483
g6
(g10
S'\xc1\xff\xa5@'
p4484
tp4485
Rp4486
tp4487
s(g29
I99
tp4488
(g6
(g10
S'\x00\x00\x00\x00'
p4489
tp4490
Rp4491
g6
(g10
S'&\xe1\xe6A'
p4492
tp4493
Rp4494
tp4495
s(g38
I103
tp4496
(g6
(g10
S'\x00\x00\x00\x00'
p4497
tp4498
Rp4499
g6
(g10
S'\x0c~&A'
p4500
tp4501
Rp4502
tp4503
s(g4
I111
tp4504
(g6
(g10
S'\x00\x00\x00\x00'
p4505
tp4506
Rp4507
g6
(g10
S'\x04B\xed@'
p4508
tp4509
Rp4510
tp4511
s(g20
I142
tp4512
(g6
(g10
S'\x00\x00\x00\x00'
p4513
tp4514
Rp4515
g6
(g10
S'\x86\xd7\x91>'
p4516
tp4517
Rp4518
tp4519
s(g20
I121
tp4520
(g6
(g10
S'\x00\x00\x00\x00'
p4521
tp4522
Rp4523
g6
(g10
S'6\x94\x11A'
p4524
tp4525
Rp4526
tp4527
s(g29
I137
tp4528
(g6
(g10
S'\x00\x00\x00\x00'
p4529
tp4530
Rp4531
g6
(g10
S'\xac7}@'
p4532
tp4533
Rp4534
tp4535
s(g38
I25
tp4536
(g6
(g10
S'\x00\x00\x00\x00'
p4537
tp4538
Rp4539
g6
(g10
S'\xd5\xfc\x8eA'
p4540
tp4541
Rp4542
tp4543
s(g38
I144
tp4544
(g6
(g10
S'\x00\x00\x00\x00'
p4545
tp4546
Rp4547
g6
(g10
S'\xe3\x0e A'
p4548
tp4549
Rp4550
tp4551
s(g4
I30
tp4552
(g6
(g10
S'\x00\x00\x00\x00'
p4553
tp4554
Rp4555
g6
(g10
S'H\xff\x97A'
p4556
tp4557
Rp4558
tp4559
s(g20
I148
tp4560
(g6
(g10
S'\x00\x00\x00\x00'
p4561
tp4562
Rp4563
g6
(g10
S'\xcd\x8b\xeaA'
p4564
tp4565
Rp4566
tp4567
s(g4
I151
tp4568
(g6
(g10
S'\x00\x00\x00\x00'
p4569
tp4570
Rp4571
g6
(g10
S'3\xd9\xe4A'
p4572
tp4573
Rp4574
tp4575
s(g20
I31
tp4576
(g6
(g10
S'\x00\x00\x00\x00'
p4577
tp4578
Rp4579
g6
(g10
S':\xe1\rA'
p4580
tp4581
Rp4582
tp4583
s(g29
I151
tp4584
(g6
(g10
S'\x00\x00\x00\x00'
p4585
tp4586
Rp4587
g6
(g10
S'\xb18\x07A'
p4588
tp4589
Rp4590
tp4591
s(g38
I51
tp4592
(g6
(g10
S'\x00\x00\x00\x00'
p4593
tp4594
Rp4595
g6
(g10
S'\xdb\x8bEA'
p4596
tp4597
Rp4598
tp4599
s(g29
I24
tp4600
(g6
(g10
S'\x00\x00\x00\x00'
p4601
tp4602
Rp4603
g6
(g10
S'\xf0ku@'
p4604
tp4605
Rp4606
tp4607
s(g38
I138
tp4608
(g6
(g10
S'\x00\x00\x00\x00'
p4609
tp4610
Rp4611
g6
(g10
S'Gr\x81A'
p4612
tp4613
Rp4614
tp4615
s(g4
I56
tp4616
(g6
(g10
S'\x00\x00\x00\x00'
p4617
tp4618
Rp4619
g6
(g10
S'\x95\x92cA'
p4620
tp4621
Rp4622
tp4623
s(g20
I186
tp4624
(g6
(g10
S'\x00\x00\x00\x00'
p4625
tp4626
Rp4627
g6
(g10
S"'\xef\x90@"
p4628
tp4629
Rp4630
tp4631
s(g4
I177
tp4632
(g6
(g10
S'\x00\x00\x00\x00'
p4633
tp4634
Rp4635
g6
(g10
S'Q\x80\x92A'
p4636
tp4637
Rp4638
tp4639
s(g20
I37
tp4640
(g6
(g10
S'\x00\x00\x00\x00'
p4641
tp4642
Rp4643
g6
(g10
S'u!\xc7?'
p4644
tp4645
Rp4646
tp4647
s(g29
I189
tp4648
(g6
(g10
S'\x00\x00\x00\x00'
p4649
tp4650
Rp4651
g6
(g10
S'\x07\xb1\x84A'
p4652
tp4653
Rp4654
tp4655
s(g29
I38
tp4656
(g6
(g10
S'\x00\x00\x00\x00'
p4657
tp4658
Rp4659
g6
(g10
S'\xbayo?'
p4660
tp4661
Rp4662
tp4663
s(g38
I172
tp4664
(g6
(g10
S'\x00\x00\x00\x00'
p4665
tp4666
Rp4667
g6
(g10
S'\xa3m}A'
p4668
tp4669
Rp4670
tp4671
s(g4
I82
tp4672
(g6
(g10
S'\x00\x00\x00\x00'
p4673
tp4674
Rp4675
g6
(g10
S'\x993\xa7@'
p4676
tp4677
Rp4678
tp4679
s(g4
I171
tp4680
(g6
(g10
S'\x00\x00\x00\x00'
p4681
tp4682
Rp4683
g6
(g10
S"'\xf9\xd2@"
p4684
tp4685
Rp4686
tp4687
s(g29
I76
tp4688
(g6
(g10
S'\x00\x00\x00\x00'
p4689
tp4690
Rp4691
g6
(g10
S'cb\x85A'
p4692
tp4693
Rp4694
tp4695
s(g38
I70
tp4696
(g6
(g10
S'\x00\x00\x00\x00'
p4697
tp4698
Rp4699
g6
(g10
S'\xb1\x925A'
p4700
tp4701
Rp4702
tp4703
s(g4
I76
tp4704
(g6
(g10
S'\x00\x00\x00\x00'
p4705
tp4706
Rp4707
g6
(g10
S'\xd3\x88CA'
p4708
tp4709
Rp4710
tp4711
s(g4
I197
tp4712
(g6
(g10
S'\x00\x00\x00\x00'
p4713
tp4714
Rp4715
g6
(g10
S'\xc6\xd3cA'
p4716
tp4717
Rp4718
tp4719
s(g20
I88
tp4720
(g6
(g10
S'\x00\x00\x00\x00'
p4721
tp4722
Rp4723
g6
(g10
S'U\xd0\xc6@'
p4724
tp4725
Rp4726
tp4727
s(g29
I106
tp4728
(g6
(g10
S'\x00\x00\x00\x00'
p4729
tp4730
Rp4731
g6
(g10
S'\xd6\xf9MA'
p4732
tp4733
Rp4734
tp4735
s(g38
I120
tp4736
(g6
(g10
S'\x00\x00\x00\x00'
p4737
tp4738
Rp4739
g6
(g10
S'`\x91\x03A'
p4740
tp4741
Rp4742
tp4743
s(g4
I102
tp4744
(g6
(g10
S'\x00\x00\x00\x00'
p4745
tp4746
Rp4747
g6
(g10
S'\x81\x13\x7fA'
p4748
tp4749
Rp4750
tp4751
s(g20
I126
tp4752
(g6
(g10
S'\x00\x00\x00\x00'
p4753
tp4754
Rp4755
g6
(g10
S'Qd\x04A'
p4756
tp4757
Rp4758
tp4759
s(g29
I112
tp4760
(g6
(g10
S'\x00\x00\x00\x00'
p4761
tp4762
Rp4763
g6
(g10
S'\xc1Y\xa7?'
p4764
tp4765
Rp4766
tp4767
s(g38
I18
tp4768
(g6
(g10
S'\x00\x00\x00\x00'
p4769
tp4770
Rp4771
g6
(g10
S'z\x04hA'
p4772
tp4773
Rp4774
tp4775
s(g4
I25
tp4776
(g6
(g10
S'\x00\x00\x00\x00'
p4777
tp4778
Rp4779
g6
(g10
S'|\xf4\\?'
p4780
tp4781
Rp4782
tp4783
s(g20
I157
tp4784
(g6
(g10
S'\x00\x00\x00\x00'
p4785
tp4786
Rp4787
g6
(g10
S'4A\nA'
p4788
tp4789
Rp4790
tp4791
s(g20
I4
tp4792
(g6
(g10
S'\x00\x00\x00\x00'
p4793
tp4794
Rp4795
g6
(g10
S'\xb1\x9fhA'
p4796
tp4797
Rp4798
tp4799
s(g29
I158
tp4800
(g6
(g10
S'\x00\x00\x00\x00'
p4801
tp4802
Rp4803
g6
(g10
S'\xab\xf3\xdc@'
p4804
tp4805
Rp4806
tp4807
s(g38
I52
tp4808
(g6
(g10
S'\x00\x00\x00\x00'
p4809
tp4810
Rp4811
g6
(g10
S'\x18\xd9\xa6A'
p4812
tp4813
Rp4814
tp4815
s(g29
I7
tp4816
(g6
(g10
S'\x00\x00\x00\x00'
p4817
tp4818
Rp4819
g6
(g10
S'\xd54\xa7@'
p4820
tp4821
Rp4822
tp4823
s(g38
I131
tp4824
(g6
(g10
S'\x00\x00\x00\x00'
p4825
tp4826
Rp4827
g6
(g10
S'lq\x90A'
p4828
tp4829
Rp4830
tp4831
s(g4
I51
tp4832
(g6
(g10
S'\x00\x00\x00\x00'
p4833
tp4834
Rp4835
g6
(g10
S'p\x86JA'
p4836
tp4837
Rp4838
tp4839
s(g20
I163
tp4840
(g6
(g10
S'\x00\x00\x00\x00'
p4841
tp4842
Rp4843
g6
(g10
S'\x83\x83}A'
p4844
tp4845
Rp4846
tp4847
s(g4
I136
tp4848
(g6
(g10
S'\x00\x00\x00\x00'
p4849
tp4850
Rp4851
g6
(g10
S'\x89\xce\x9bA'
p4852
tp4853
Rp4854
tp4855
s(g20
I42
tp4856
(g6
(g10
S'\x00\x00\x00\x00'
p4857
tp4858
Rp4859
g6
(g10
S'\xfe\xd65A'
p4860
tp4861
Rp4862
tp4863
s(g29
I164
tp4864
(g6
(g10
S'\x00\x00\x00\x00'
p4865
tp4866
Rp4867
g6
(g10
S'WE@A'
p4868
tp4869
Rp4870
tp4871
s(g38
I46
tp4872
(g6
(g10
S'\x00\x00\x00\x00'
p4873
tp4874
Rp4875
g6
(g10
S'\xc6|\xe1A'
p4876
tp4877
Rp4878
tp4879
s(g29
I45
tp4880
(g6
(g10
S'\x00\x00\x00\x00'
p4881
tp4882
Rp4883
g6
(g10
S'\xd1m)A'
p4884
tp4885
Rp4886
tp4887
s(g38
I165
tp4888
(g6
(g10
S'\x00\x00\x00\x00'
p4889
tp4890
Rp4891
g6
(g10
S'@\xe3UA'
p4892
tp4893
Rp4894
tp4895
s(g4
I45
tp4896
(g6
(g10
S'\x00\x00\x00\x00'
p4897
tp4898
Rp4899
g6
(g10
S'\xb1C7A'
p4900
tp4901
Rp4902
tp4903
s(g4
I162
tp4904
(g6
(g10
S'\x00\x00\x00\x00'
p4905
tp4906
Rp4907
g6
(g10
S'3%\x9dA'
p4908
tp4909
Rp4910
tp4911
s(g20
I48
tp4912
(g6
(g10
S'\x00\x00\x00\x00'
p4913
tp4914
Rp4915
g6
(g10
S'\x94<\xf0@'
p4916
tp4917
Rp4918
tp4919
s(g29
I194
tp4920
(g6
(g10
S'\x00\x00\x00\x00'
p4921
tp4922
Rp4923
g6
(g10
S'`$\xd8<'
p4924
tp4925
Rp4926
tp4927
s(g29
I75
tp4928
(g6
(g10
S'\x00\x00\x00\x00'
p4929
tp4930
Rp4931
g6
(g10
S'\xcf\xc6\x98@'
p4932
tp4933
Rp4934
tp4935
s(g38
I95
tp4936
(g6
(g10
S'\x00\x00\x00\x00'
p4937
tp4938
Rp4939
g6
(g10
S'\x16\xbc\x82A'
p4940
tp4941
Rp4942
tp4943
s(g4
I71
tp4944
(g6
(g10
S'\x00\x00\x00\x00'
p4945
tp4946
Rp4947
g6
(g10
S'\xa6\x9d\x99@'
p4948
tp4949
Rp4950
tp4951
s(g20
I65
tp4952
(g6
(g10
S'\x00\x00\x00\x00'
p4953
tp4954
Rp4955
g6
(g10
S'C\x04\x12?'
p4956
tp4957
Rp4958
tp4959
s(g29
I81
tp4960
(g6
(g10
S'\x00\x00\x00\x00'
p4961
tp4962
Rp4963
g6
(g10
S'7e\n>'
p4964
tp4965
Rp4966
tp4967
s(g38
I113
tp4968
(g6
(g10
S'\x00\x00\x00\x00'
p4969
tp4970
Rp4971
g6
(g10
S'c\x8a\x87A'
p4972
tp4973
Rp4974
tp4975
s(g4
I97
tp4976
(g6
(g10
S'\x00\x00\x00\x00'
p4977
tp4978
Rp4979
g6
(g10
S'd\x1cRA'
p4980
tp4981
Rp4982
tp4983
s(g20
I103
tp4984
(g6
(g10
S'\x00\x00\x00\x00'
p4985
tp4986
Rp4987
g6
(g10
S'\xe9\xc3R@'
p4988
tp4989
Rp4990
tp4991
s(g29
I127
tp4992
(g6
(g10
S'\x00\x00\x00\x00'
p4993
tp4994
Rp4995
g6
(g10
S'\x89\xb7nA'
p4996
tp4997
Rp4998
tp4999
s(g38
I107
tp5000
(g6
(g10
S'\x00\x00\x00\x00'
p5001
tp5002
Rp5003
g6
(g10
S'r\xab`A'
p5004
tp5005
Rp5006
tp5007
s(g4
I16
tp5008
(g6
(g10
S'\x00\x00\x00\x00'
p5009
tp5010
Rp5011
g6
(g10
S')\x1cfA'
p5012
tp5013
Rp5014
tp5015
s(g20
I130
tp5016
(g6
(g10
S'\x00\x00\x00\x00'
p5017
tp5018
Rp5019
g6
(g10
S'\x17j\x81@'
p5020
tp5021
Rp5022
tp5023
s(g20
I13
tp5024
(g6
(g10
S'\x00\x00\x00\x00'
p5025
tp5026
Rp5027
g6
(g10
S'\xadZ\xe6A'
p5028
tp5029
Rp5030
tp5031
s(g29
I133
tp5032
(g6
(g10
S'\x00\x00\x00\x00'
p5033
tp5034
Rp5035
g6
(g10
S'\x8f\xbe\xa2@'
p5036
tp5037
Rp5038
tp5039
s(g38
I13
tp5040
(g6
(g10
S'\x00\x00\x00\x00'
p5041
tp5042
Rp5043
g6
(g10
S'\xacFlA'
p5044
tp5045
Rp5046
tp5047
s(g29
I14
tp5048
(g6
(g10
S'\x00\x00\x00\x00'
p5049
tp5050
Rp5051
g5051
tp5052
s(g38
I132
tp5053
(g6
(g10
S'\x00\x00\x00\x00'
p5054
tp5055
Rp5056
g6
(g10
S'\xff%\xe5A'
p5057
tp5058
Rp5059
tp5060
s(g4
I10
tp5061
(g6
(g10
S'\x00\x00\x00\x00'
p5062
tp5063
Rp5064
g6
(g10
S'[\xa2\x7f@'
p5065
tp5066
Rp5067
tp5068
s(g20
I168
tp5069
(g6
(g10
S'\x00\x00\x00\x00'
p5070
tp5071
Rp5072
g6
(g10
S'h\x91\x9e>'
p5073
tp5074
Rp5075
tp5076
s(g4
I131
tp5077
(g6
(g10
S'\x00\x00\x00\x00'
p5078
tp5079
Rp5080
g6
(g10
S'\x0c\xb3"A'
p5081
tp5082
Rp5083
tp5084
s(g20
I19
tp5085
(g6
(g10
S'\x00\x00\x00\x00'
p5086
tp5087
Rp5088
g6
(g10
S'`\x8e\xc9A'
p5089
tp5090
Rp5091
tp5092
s(g29
I163
tp5093
(g6
(g10
S'\x00\x00\x00\x00'
p5094
tp5095
Rp5096
g6
(g10
S'\xe6<h>'
p5097
tp5098
Rp5099
tp5100
s(g38
I39
tp5101
(g6
(g10
S'\x00\x00\x00\x00'
p5102
tp5103
Rp5104
g6
(g10
S'U\xaa\x94A'
p5105
tp5106
Rp5107
tp5108
s(g29
I20
tp5109
(g6
(g10
S'\x00\x00\x00\x00'
p5110
tp5111
Rp5112
g6
(g10
S'\xb59\x88A'
p5113
tp5114
Rp5115
tp5116
s(g38
I190
tp5117
(g6
(g10
S'\x00\x00\x00\x00'
p5118
tp5119
Rp5120
g6
(g10
S'y\x7f\xa1A'
p5121
tp5122
Rp5123
tp5124
s(g4
I36
tp5125
(g6
(g10
S'\x00\x00\x00\x00'
p5126
tp5127
Rp5128
g6
(g10
S'\x85\xa6\xf0A'
p5129
tp5130
Rp5131
tp5132
s(g4
I189
tp5133
(g6
(g10
S'\x00\x00\x00\x00'
p5134
tp5135
Rp5136
g6
(g10
S'\x1f\xc2gA'
p5137
tp5138
Rp5139
tp5140
s(g20
I57
tp5141
(g6
(g10
S'\x00\x00\x00\x00'
p5142
tp5143
Rp5144
g6
(g10
S'6\xfe~@'
p5145
tp5146
Rp5147
tp5148
s(g29
I50
tp5149
(g6
(g10
S'\x00\x00\x00\x00'
p5150
tp5151
Rp5152
g6
(g10
S'\x1d(:A'
p5153
tp5154
Rp5155
tp5156
s(g38
I80
tp5157
(g6
(g10
S'\x00\x00\x00\x00'
p5158
tp5159
Rp5160
g6
(g10
S'\x1f^\x9eA'
p5161
tp5162
Rp5163
tp5164
s(g4
I94
tp5165
(g6
(g10
S'\x00\x00\x00\x00'
p5166
tp5167
Rp5168
g6
(g10
S'Yk-A'
p5169
tp5170
Rp5171
tp5172
s(g20
I70
tp5173
(g6
(g10
S'\x00\x00\x00\x00'
p5174
tp5175
Rp5176
g6
(g10
S'Y\x08\x07A'
p5177
tp5178
Rp5179
tp5180
s(g29
I88
tp5181
(g6
(g10
S'\x00\x00\x00\x00'
p5182
tp5183
Rp5184
g6
(g10
S'\x82\x8aAA'
p5185
tp5186
Rp5187
tp5188
s(g38
I74
tp5189
(g6
(g10
S'\x00\x00\x00\x00'
p5190
tp5191
Rp5192
g6
(g10
S'\xf5\xbd+A'
p5193
tp5194
Rp5195
tp5196
s(g4
I120
tp5197
(g6
(g10
S'\x00\x00\x00\x00'
p5198
tp5199
Rp5200
g6
(g10
S'_WtA'
p5201
tp5202
Rp5203
tp5204
s(g38
I193
tp5205
(g6
(g10
S'\x00\x00\x00\x00'
p5206
tp5207
Rp5208
g6
(g10
S'qetA'
p5209
tp5210
Rp5211
tp5212
s(g20
I108
tp5213
(g6
(g10
S'\x00\x00\x00\x00'
p5214
tp5215
Rp5216
g6
(g10
S'\x12\xf1=?'
p5217
tp5218
Rp5219
tp5220
s(g29
I102
tp5221
(g6
(g10
S'\x00\x00\x00\x00'
p5222
tp5223
Rp5224
g6
(g10
S'\x99m&A'
p5225
tp5226
Rp5227
tp5228
s(g38
I108
tp5229
(g6
(g10
S'\x00\x00\x00\x00'
p5230
tp5231
Rp5232
g6
(g10
S'\x93\xe9\x84A'
p5233
tp5234
Rp5235
tp5236
s(g20
I139
tp5237
(g6
(g10
S'\x00\x00\x00\x00'
p5238
tp5239
Rp5240
g6
(g10
S'\xdf\xa6\x8d@'
p5241
tp5242
Rp5243
tp5244
s(g20
I114
tp5245
(g6
(g10
S'\x00\x00\x00\x00'
p5246
tp5247
Rp5248
g6
(g10
S'5\x95B@'
p5249
tp5250
Rp5251
tp5252
s(g29
I140
tp5253
(g6
(g10
S'\x00\x00\x00\x00'
p5254
tp5255
Rp5256
g6
(g10
S'3\x88\xe7@'
p5257
tp5258
Rp5259
tp5260
s(g38
I6
tp5261
(g6
(g10
S'\x00\x00\x00\x00'
p5262
tp5263
Rp5264
g6
(g10
S'\xd48`A'
p5265
tp5266
Rp5267
tp5268
s(g38
I157
tp5269
(g6
(g10
S'\x00\x00\x00\x00'
p5270
tp5271
Rp5272
g6
(g10
S'\x1e\xd0CA'
p5273
tp5274
Rp5275
tp5276
s(g4
I5
tp5277
(g6
(g10
S'\x00\x00\x00\x00'
p5278
tp5279
Rp5280
g6
(g10
S'\xbfjSA'
p5281
tp5282
Rp5283
tp5284
s(g20
I145
tp5285
(g6
(g10
S'\x00\x00\x00\x00'
p5286
tp5287
Rp5288
g6
(g10
S'T\x1e0A'
p5289
tp5290
Rp5291
tp5292
s(g4
I154
tp5293
(g6
(g10
S'\x00\x00\x00\x00'
p5294
tp5295
Rp5296
g6
(g10
S'\xe4\xb5\x05A'
p5297
tp5298
Rp5299
tp5300
s(g20
I24
tp5301
(g6
(g10
S'\x00\x00\x00\x00'
p5302
tp5303
Rp5304
g6
(g10
S'"\xca;A'
p5305
tp5306
Rp5307
tp5308
s(g29
I170
tp5309
(g6
(g10
S'\x00\x00\x00\x00'
p5310
tp5311
Rp5312
g6
(g10
S'\nn2@'
p5313
tp5314
Rp5315
tp5316
s(g38
I56
tp5317
(g6
(g10
S'\x00\x00\x00\x00'
p5318
tp5319
Rp5320
g6
(g10
S'\xe3\x07\x89A'
p5321
tp5322
Rp5323
tp5324
s(g29
I19
tp5325
(g6
(g10
S'\x00\x00\x00\x00'
p5326
tp5327
Rp5328
g6
(g10
S'\x9f\xfc\xed?'
p5329
tp5330
Rp5331
tp5332
s(g38
I183
tp5333
(g6
(g10
S'\x00\x00\x00\x00'
p5334
tp5335
Rp5336
g6
(g10
S'X`KA'
p5337
tp5338
Rp5339
tp5340
s(g4
I63
tp5341
(g6
(g10
S'\x00\x00\x00\x00'
p5342
tp5343
Rp5344
g6
(g10
S'2\xef\x9bA'
p5345
tp5346
Rp5347
tp5348
s(g20
I183
tp5349
(g6
(g10
S'\x00\x00\x00\x00'
p5350
tp5351
Rp5352
g6
(g10
S'\xfc6\x1dA'
p5353
tp5354
Rp5355
tp5356
s(g4
I180
tp5357
(g6
(g10
S'\x00\x00\x00\x00'
p5358
tp5359
Rp5360
g6
(g10
S'\x8a\xf9\xfd@'
p5361
tp5362
Rp5363
tp5364
s(g20
I62
tp5365
(g6
(g10
S'\x00\x00\x00\x00'
p5366
tp5367
Rp5368
g6
(g10
S'\xa9\xb2\x89?'
p5369
tp5370
Rp5371
tp5372
s(g29
I176
tp5373
(g6
(g10
S'\x00\x00\x00\x00'
p5374
tp5375
Rp5376
g6
(g10
S'\x0cqU@'
p5377
tp5378
Rp5379
tp5380
s(g29
I57
tp5381
(g6
(g10
S'\x00\x00\x00\x00'
p5382
tp5383
Rp5384
g6
(g10
S'\xb8\xe5\x19A'
p5385
tp5386
Rp5387
tp5388
s(g38
I169
tp5389
(g6
(g10
S'\x00\x00\x00\x00'
p5390
tp5391
Rp5392
g6
(g10
S'?\xe4JA'
p5393
tp5394
Rp5395
tp5396
s(g4
I89
tp5397
(g6
(g10
S'\x00\x00\x00\x00'
p5398
tp5399
Rp5400
g6
(g10
S'\xd0l\xab@'
p5401
tp5402
Rp5403
tp5404
s(g4
I174
tp5405
(g6
(g10
S'\x00\x00\x00\x00'
p5406
tp5407
Rp5408
g6
(g10
S'\x9f\xf5\x0fA'
p5409
tp5410
Rp5411
tp5412
s(g20
I196
tp5413
(g6
(g10
S'\x00\x00\x00\x00'
p5414
tp5415
Rp5416
g6
(g10
S'\xaa(\xfb@'
p5417
tp5418
Rp5419
tp5420
s(g20
I79
tp5421
(g6
(g10
S'\x00\x00\x00\x00'
p5422
tp5423
Rp5424
g6
(g10
S'\x90\x8buA'
p5425
tp5426
Rp5427
tp5428
s(g29
I71
tp5429
(g6
(g10
S'\x00\x00\x00\x00'
p5430
tp5431
Rp5432
g6
(g10
S'\xa1\xa0[A'
p5433
tp5434
Rp5435
tp5436
s(g38
I67
tp5437
(g6
(g10
S'\x00\x00\x00\x00'
p5438
tp5439
Rp5440
g6
(g10
S'P\x93\xa3A'
p5441
tp5442
Rp5443
tp5444
s(g4
I115
tp5445
(g6
(g10
S'\x00\x00\x00\x00'
p5446
tp5447
Rp5448
g6
(g10
S'\xc8<\x88A'
p5449
tp5450
Rp5451
tp5452
s(g20
I85
tp5453
(g6
(g10
S'\x00\x00\x00\x00'
p5454
tp5455
Rp5456
g6
(g10
S'\x15\xddAA'
p5457
tp5458
Rp5459
tp5460
s(g29
I109
tp5461
(g6
(g10
S'\x00\x00\x00\x00'
p5462
tp5463
Rp5464
g6
(g10
S't\x7f\xc1@'
p5465
tp5466
Rp5467
tp5468
s(g38
I101
tp5469
(g6
(g10
S'\x00\x00\x00\x00'
p5470
tp5471
Rp5472
g6
(g10
S'\xa6\xfd\x92A'
p5473
tp5474
Rp5475
tp5476
s(g4
I109
tp5477
(g6
(g10
S'\x00\x00\x00\x00'
p5478
tp5479
Rp5480
g6
(g10
S'c\xd2\x8eA'
p5481
tp5482
Rp5483
tp5484
s(g20
I123
tp5485
(g6
(g10
S'\x00\x00\x00\x00'
p5486
tp5487
Rp5488
g6
(g10
S'\x9f9\xd4@'
p5489
tp5490
Rp5491
tp5492
s(g29
I139
tp5493
(g6
(g10
S'\x00\x00\x00\x00'
p5494
tp5495
Rp5496
g6
(g10
S'\xf4\xe9\x82A'
p5497
tp5498
Rp5499
tp5500
s(g38
I31
tp5501
(g6
(g10
S'\x00\x00\x00\x00'
p5502
tp5503
Rp5504
g6
(g10
S'\n\xffeA'
p5505
tp5506
Rp5507
tp5508
s(g38
I150
tp5509
(g6
(g10
S'\x00\x00\x00\x00'
p5510
tp5511
Rp5512
g6
(g10
S'\xf78\xceA'
p5513
tp5514
Rp5515
tp5516
s(g4
I28
tp5517
(g6
(g10
S'\x00\x00\x00\x00'
p5518
tp5519
Rp5520
g6
(g10
S'\x94F\xa6A'
p5521
tp5522
Rp5523
tp5524
s(g20
I150
tp5525
(g6
(g10
S'\x00\x00\x00\x00'
p5526
tp5527
Rp5528
g6
(g10
S'8$\xf3@'
p5529
tp5530
Rp5531
tp5532
s(g4
I149
tp5533
(g6
(g10
S'\x00\x00\x00\x00'
p5534
tp5535
Rp5536
g6
(g10
S'\xdb\xb5PA'
p5537
tp5538
Rp5539
tp5540
s(g20
I1
tp5541
(g6
(g10
S'\x00\x00\x00\x00'
p5542
tp5543
Rp5544
g6
(g10
S'\x9d\xc8\x94@'
p5545
tp5546
Rp5547
tp5548
s(g29
I145
tp5549
(g6
(g10
S'\x00\x00\x00\x00'
p5550
tp5551
Rp5552
g6
(g10
S'\xd1\xb1\xe4='
p5553
tp5554
Rp5555
tp5556
s(g38
I49
tp5557
(g6
(g10
S'\x00\x00\x00\x00'
p5558
tp5559
Rp5560
g6
(g10
S')\xb38A'
p5561
tp5562
Rp5563
tp5564
s(g29
I26
tp5565
(g6
(g10
S'\x00\x00\x00\x00'
p5566
tp5567
Rp5568
g6
(g10
S']\x0c<A'
p5569
tp5570
Rp5571
tp5572
s(g38
I136
tp5573
(g6
(g10
S'\x00\x00\x00\x00'
p5574
tp5575
Rp5576
g6
(g10
S'\x84\x8d\x7fA'
p5577
tp5578
Rp5579
tp5580
s(g4
I54
tp5581
(g6
(g10
S'\x00\x00\x00\x00'
p5582
tp5583
Rp5584
g6
(g10
S'\x1bA\x10A'
p5585
tp5586
Rp5587
tp5588
s(g20
I188
tp5589
(g6
(g10
S'\x00\x00\x00\x00'
p5590
tp5591
Rp5592
g6
(g10
S'\xbe\xfb\x94@'
p5593
tp5594
Rp5595
tp5596
s(g4
I143
tp5597
(g6
(g10
S'\x00\x00\x00\x00'
p5598
tp5599
Rp5600
g6
(g10
S'\x14\x93\xcd@'
p5601
tp5602
Rp5603
tp5604
s(g20
I39
tp5605
(g6
(g10
S'\x00\x00\x00\x00'
p5606
tp5607
Rp5608
g6
(g10
S'E\xb6/@'
p5609
tp5610
Rp5611
tp5612
s(g29
I191
tp5613
(g6
(g10
S'\x00\x00\x00\x00'
p5614
tp5615
Rp5616
g6
(g10
S'e\xb2(@'
p5617
tp5618
Rp5619
tp5620
s(g38
I43
tp5621
(g6
(g10
S'\x00\x00\x00\x00'
p5622
tp5623
Rp5624
g6
(g10
S'\xce\xeaTA'
p5625
tp5626
Rp5627
tp5628
s(g29
I32
tp5629
(g6
(g10
S'\x00\x00\x00\x00'
p5630
tp5631
Rp5632
g6
(g10
S'wY\xc0@'
p5633
tp5634
Rp5635
tp5636
s(g38
I162
tp5637
(g6
(g10
S'\x00\x00\x00\x00'
p5638
tp5639
Rp5640
g6
(g10
S'\xf3{SA'
p5641
tp5642
Rp5643
tp5644
s(g4
I80
tp5645
(g6
(g10
S'\x00\x00\x00\x00'
p5646
tp5647
Rp5648
g6
(g10
S'\x8f\xdcBA'
p5649
tp5650
Rp5651
tp5652
s(g4
I169
tp5653
(g6
(g10
S'\x00\x00\x00\x00'
p5654
tp5655
Rp5656
g6
(g10
S'\xef\xb6\xdaA'
p5657
tp5658
Rp5659
tp5660
s(g29
I197
tp5661
(g6
(g10
S'\x00\x00\x00\x00'
p5662
tp5663
Rp5664
g6
(g10
S'N\xfe\xceA'
p5665
tp5666
Rp5667
tp5668
s(g29
I78
tp5669
(g6
(g10
S'\x00\x00\x00\x00'
p5670
tp5671
Rp5672
g6
(g10
S'\x1a*\xcaA'
p5673
tp5674
Rp5675
tp5676
s(g38
I68
tp5677
(g6
(g10
S'\x00\x00\x00\x00'
p5678
tp5679
Rp5680
g6
(g10
S'\xc3.\xfdA'
p5681
tp5682
Rp5683
tp5684
s(g4
I74
tp5685
(g6
(g10
S'\x00\x00\x00\x00'
p5686
tp5687
Rp5688
g6
(g10
S'Bs\xda@'
p5689
tp5690
Rp5691
tp5692
s(g4
I195
tp5693
(g6
(g10
S'\x00\x00\x00\x00'
p5694
tp5695
Rp5696
g6
(g10
S'\xdcn\xadA'
p5697
tp5698
Rp5699
tp5700
s(g20
I90
tp5701
(g6
(g10
S'\x00\x00\x00\x00'
p5702
tp5703
Rp5704
g6
(g10
S'@\xa2QA'
p5705
tp5706
Rp5707
tp5708
s(g29
I84
tp5709
(g6
(g10
S'\x00\x00\x00\x00'
p5710
tp5711
Rp5712
g6
(g10
S'\x96\xfc\xafA'
p5713
tp5714
Rp5715
tp5716
s(g38
I126
tp5717
(g6
(g10
S'\x00\x00\x00\x00'
p5718
tp5719
Rp5720
g6
(g10
S'}\xca\xc5A'
p5721
tp5722
Rp5723
tp5724
s(g4
I100
tp5725
(g6
(g10
S'\x00\x00\x00\x00'
p5726
tp5727
Rp5728
g6
(g10
S'\xb6\xfaWA'
p5729
tp5730
Rp5731
tp5732
s(g20
I96
tp5733
(g6
(g10
S'\x00\x00\x00\x00'
p5734
tp5735
Rp5736
g6
(g10
S';t\rB'
p5737
tp5738
Rp5739
tp5740
s(g29
I114
tp5741
(g6
(g10
S'\x00\x00\x00\x00'
p5742
tp5743
Rp5744
g6
(g10
S'T\xa0:@'
p5745
tp5746
Rp5747
tp5748
s(g38
I16
tp5749
(g6
(g10
S'\x00\x00\x00\x00'
p5750
tp5751
Rp5752
g6
(g10
S'\x91CYA'
p5753
tp5754
Rp5755
tp5756
s(g4
I23
tp5757
(g6
(g10
S'\x00\x00\x00\x00'
p5758
tp5759
Rp5760
g6
(g10
S'\xf4\x15h?'
p5761
tp5762
Rp5763
tp5764
s(g20
I159
tp5765
(g6
(g10
S'\x00\x00\x00\x00'
p5766
tp5767
Rp5768
g6
(g10
S'\xa0\x03\xac@'
p5769
tp5770
Rp5771
tp5772
s(g20
I6
tp5773
(g6
(g10
S'\x00\x00\x00\x00'
p5774
tp5775
Rp5776
g6
(g10
S'3ffA'
p5777
tp5778
Rp5779
tp5780
s(g29
I152
tp5781
(g6
(g10
S'\x00\x00\x00\x00'
p5782
tp5783
Rp5784
g6
(g10
S'\xd7\x16\x8fA'
p5785
tp5786
Rp5787
tp5788
s(g38
I10
tp5789
(g6
(g10
S'\x00\x00\x00\x00'
p5790
tp5791
Rp5792
g6
(g10
S'.\x02#A'
p5793
tp5794
Rp5795
tp5796
s(g29
I1
tp5797
(g6
(g10
S'\x00\x00\x00\x00'
p5798
tp5799
Rp5800
g6
(g10
S'\xeaUiA'
p5801
tp5802
Rp5803
tp5804
s(g38
I129
tp5805
(g6
(g10
S'\x00\x00\x00\x00'
p5806
tp5807
Rp5808
g6
(g10
S'\xbfwsA'
p5809
tp5810
Rp5811
tp5812
s(g4
I49
tp5813
(g6
(g10
S'\x00\x00\x00\x00'
p5814
tp5815
Rp5816
g6
(g10
S'A\x8cFA'
p5817
tp5818
Rp5819
tp5820
s(g20
I165
tp5821
(g6
(g10
S'\x00\x00\x00\x00'
p5822
tp5823
Rp5824
g6
(g10
S'\xbd\xba\x95A'
p5825
tp5826
Rp5827
tp5828
s(g4
I134
tp5829
(g6
(g10
S'\x00\x00\x00\x00'
p5830
tp5831
Rp5832
g6
(g10
S'F\xa6n?'
p5833
tp5834
Rp5835
tp5836
s(g20
I44
tp5837
(g6
(g10
S'\x00\x00\x00\x00'
p5838
tp5839
Rp5840
g6
(g10
S'\xeeaEA'
p5841
tp5842
Rp5843
tp5844
s(g29
I166
tp5845
(g6
(g10
S'\x00\x00\x00\x00'
p5846
tp5847
Rp5848
g6
(g10
S'\x1a\xe2\xd1A'
p5849
tp5850
Rp5851
tp5852
s(g38
I44
tp5853
(g6
(g10
S'\x00\x00\x00\x00'
p5854
tp5855
Rp5856
g6
(g10
S'*\x81\x84A'
p5857
tp5858
Rp5859
tp5860
s(g29
I47
tp5861
(g6
(g10
S'\x00\x00\x00\x00'
p5862
tp5863
Rp5864
g6
(g10
S'\x0c/`A'
p5865
tp5866
Rp5867
tp5868
s(g38
I187
tp5869
(g6
(g10
S'\x00\x00\x00\x00'
p5870
tp5871
Rp5872
g6
(g10
S':\xae\x18B'
p5873
tp5874
Rp5875
tp5876
s(g4
I43
tp5877
(g6
(g10
S'\x00\x00\x00\x00'
p5878
tp5879
Rp5880
g6
(g10
S'bY\x05B'
p5881
tp5882
Rp5883
tp5884
s(g4
I160
tp5885
(g6
(g10
S'\x00\x00\x00\x00'
p5886
tp5887
Rp5888
g6
(g10
S'\x03\x95\xa5A'
p5889
tp5890
Rp5891
tp5892
s(g20
I50
tp5893
(g6
(g10
S'\x00\x00\x00\x00'
p5894
tp5895
Rp5896
g6
(g10
S'\xfd\x15pA'
p5897
tp5898
Rp5899
tp5900
s(g29
I53
tp5901
(g6
(g10
S'\x00\x00\x00\x00'
p5902
tp5903
Rp5904
g6
(g10
S'7\xcd\xd6>'
p5905
tp5906
Rp5907
tp5908
s(g38
I93
tp5909
(g6
(g10
S'\x00\x00\x00\x00'
p5910
tp5911
Rp5912
g6
(g10
S'5`4A'
p5913
tp5914
Rp5915
tp5916
s(g4
I69
tp5917
(g6
(g10
S'\x00\x00\x00\x00'
p5918
tp5919
Rp5920
g6
(g10
S'n8GA'
p5921
tp5922
Rp5923
tp5924
s(g20
I67
tp5925
(g6
(g10
S'\x00\x00\x00\x00'
p5926
tp5927
Rp5928
g6
(g10
S'}\x86@A'
p5929
tp5930
Rp5931
tp5932
s(g29
I83
tp5933
(g6
(g10
S'\x00\x00\x00\x00'
p5934
tp5935
Rp5936
g6
(g10
S'\xd1P5='
p5937
tp5938
Rp5939
tp5940
s(g38
I119
tp5941
(g6
(g10
S'\x00\x00\x00\x00'
p5942
tp5943
Rp5944
g6
(g10
S'\x06\xa1\x05B'
p5945
tp5946
Rp5947
tp5948
s(g4
I127
tp5949
(g6
(g10
S'\x00\x00\x00\x00'
p5950
tp5951
Rp5952
g6
(g10
S'b\xf1\xb6A'
p5953
tp5954
Rp5955
tp5956
s(g20
I105
tp5957
(g6
(g10
S'\x00\x00\x00\x00'
p5958
tp5959
Rp5960
g6
(g10
S'\xe46\x93@'
p5961
tp5962
Rp5963
tp5964
s(g29
I121
tp5965
(g6
(g10
S'\x00\x00\x00\x00'
p5966
tp5967
Rp5968
g6
(g10
S'h\x8f\x1eA'
p5969
tp5970
Rp5971
tp5972
s(g38
I105
tp5973
(g6
(g10
S'\x00\x00\x00\x00'
p5974
tp5975
Rp5976
g6
(g10
S'\xe0b\xb9A'
p5977
tp5978
Rp5979
tp5980
s(g20
I132
tp5981
(g6
(g10
S'\x00\x00\x00\x00'
p5982
tp5983
Rp5984
g6
(g10
S'F\x02\x8e@'
p5985
tp5986
Rp5987
tp5988
s(g20
I15
tp5989
(g6
(g10
S'\x00\x00\x00\x00'
p5990
tp5991
Rp5992
g6
(g10
S'9\x02\x02A'
p5993
tp5994
Rp5995
tp5996
s(g29
I135
tp5997
(g6
(g10
S'\x00\x00\x00\x00'
p5998
tp5999
Rp6000
g6
(g10
S'\xc3\xef\x17@'
p6001
tp6002
Rp6003
tp6004
s(g38
I3
tp6005
(g6
(g10
S'\x00\x00\x00\x00'
p6006
tp6007
Rp6008
g6
(g10
S'\xea\x13\xabA'
p6009
tp6010
Rp6011
tp6012
s(g29
I8
tp6013
(g6
(g10
S'\x00\x00\x00\x00'
p6014
tp6015
Rp6016
g6
(g10
S'\x88;\xe2@'
p6017
tp6018
Rp6019
tp6020
s(g38
I154
tp6021
(g6
(g10
S'\x00\x00\x00\x00'
p6022
tp6023
Rp6024
g6
(g10
S'\xday\xc5A'
p6025
tp6026
Rp6027
tp6028
s(g4
I8
tp6029
(g6
(g10
S'\x00\x00\x00\x00'
p6030
tp6031
Rp6032
g6
(g10
S'x\xef\x02A'
p6033
tp6034
Rp6035
tp6036
s(g20
I170
tp6037
(g6
(g10
S'\x00\x00\x00\x00'
p6038
tp6039
Rp6040
g6
(g10
S'F\xa9\x96A'
p6041
tp6042
Rp6043
tp6044
s(g4
I129
tp6045
(g6
(g10
S'\x00\x00\x00\x00'
p6046
tp6047
Rp6048
g6
(g10
S'\x8b\xfe\xfb@'
p6049
tp6050
Rp6051
tp6052
s(g20
I21
tp6053
(g6
(g10
S'\x00\x00\x00\x00'
p6054
tp6055
Rp6056
g6
(g10
S'\xac\xe0\x88A'
p6057
tp6058
Rp6059
tp6060
s(g29
I173
tp6061
(g6
(g10
S'\x00\x00\x00\x00'
p6062
tp6063
Rp6064
g6
(g10
S'\xab\xfaDA'
p6065
tp6066
Rp6067
tp6068
s(g38
I37
tp6069
(g6
(g10
S'\x00\x00\x00\x00'
p6070
tp6071
Rp6072
g6
(g10
S'qfYA'
p6073
tp6074
Rp6075
tp6076
s(g29
I22
tp6077
(g6
(g10
S'\x00\x00\x00\x00'
p6078
tp6079
Rp6080
g6
(g10
S'~/\xf3='
p6081
tp6082
Rp6083
tp6084
s(g38
I188
tp6085
(g6
(g10
S'\x00\x00\x00\x00'
p6086
tp6087
Rp6088
g6
(g10
S'\xd5\xf5\xa2A'
p6089
tp6090
Rp6091
tp6092
s(g4
I34
tp6093
(g6
(g10
S'\x00\x00\x00\x00'
p6094
tp6095
Rp6096
g6
(g10
S'\x17\x0b A'
p6097
tp6098
Rp6099
tp6100
s(g20
I176
tp6101
(g6
(g10
S'\x00\x00\x00\x00'
p6102
tp6103
Rp6104
g6
(g10
S'\x7fz*A'
p6105
tp6106
Rp6107
tp6108
s(g4
I187
tp6109
(g6
(g10
S'\x00\x00\x00\x00'
p6110
tp6111
Rp6112
g6
(g10
S'dU%A'
p6113
tp6114
Rp6115
tp6116
s(g20
I59
tp6117
(g6
(g10
S'\x00\x00\x00\x00'
p6118
tp6119
Rp6120
g6
(g10
S'i\x06]A'
p6121
tp6122
Rp6123
tp6124
s(g2431
I1
tp6125
(g6
(g10
S'\xd7\xff\xa9\xc2'
p6126
tp6127
Rp6128
g6
(g10
S'\xccF,B'
p6129
tp6130
Rp6131
tp6132
s(g29
I60
tp6133
(g6
(g10
S'\x00\x00\x00\x00'
p6134
tp6135
Rp6136
g6
(g10
S'\xcd6\xd2@'
p6137
tp6138
Rp6139
tp6140
s(g38
I86
tp6141
(g6
(g10
S'\x00\x00\x00\x00'
p6142
tp6143
Rp6144
g6
(g10
S'9\xednA'
p6145
tp6146
Rp6147
tp6148
s(g4
I92
tp6149
(g6
(g10
S'\x00\x00\x00\x00'
p6150
tp6151
Rp6152
g6
(g10
S'v\xbd\xa9A'
p6153
tp6154
Rp6155
tp6156
s(g20
I193
tp6157
(g6
(g10
S'\x00\x00\x00\x00'
p6158
tp6159
Rp6160
g6
(g10
S'\xa6<\x1dA'
p6161
tp6162
Rp6163
tp6164
s(g20
I72
tp6165
(g6
(g10
S'\x00\x00\x00\x00'
p6166
tp6167
Rp6168
g6
(g10
S'\xec\x98\xef='
p6169
tp6170
Rp6171
tp6172
s(g29
I90
tp6173
(g6
(g10
S'\x00\x00\x00\x00'
p6174
tp6175
Rp6176
g6
(g10
S'&\x8c\x1cA'
p6177
tp6178
Rp6179
tp6180
s(g38
I72
tp6181
(g6
(g10
S'\x00\x00\x00\x00'
p6182
tp6183
Rp6184
g6
(g10
S'Uf\x81A'
p6185
tp6186
Rp6187
tp6188
s(g4
I118
tp6189
(g6
(g10
S'\x00\x00\x00\x00'
p6190
tp6191
Rp6192
g6
(g10
S'\x986YA'
p6193
tp6194
Rp6195
tp6196
s(g38
I199
tp6197
(g6
(g10
S'\x00\x00\x00\x00'
p6198
tp6199
Rp6200
g6
(g10
S'(\xc5\xc4A'
p6201
tp6202
Rp6203
tp6204
s(g20
I110
tp6205
(g6
(g10
S'\x00\x00\x00\x00'
p6206
tp6207
Rp6208
g6
(g10
S'\x19V\x13@'
p6209
tp6210
Rp6211
tp6212
s(g29
I96
tp6213
(g6
(g10
S'\x00\x00\x00\x00'
p6214
tp6215
Rp6216
g6
(g10
S'g\xd2\xa1@'
p6217
tp6218
Rp6219
tp6220
s(g38
I98
tp6221
(g6
(g10
S'\x00\x00\x00\x00'
p6222
tp6223
Rp6224
g6
(g10
S'\xa4\xcb\x97A'
p6225
tp6226
Rp6227
tp6228
s(g20
I141
tp6229
(g6
(g10
S'\x00\x00\x00\x00'
p6230
tp6231
Rp6232
g6
(g10
S',\x82\x85A'
p6233
tp6234
Rp6235
tp6236
s(g20
I116
tp6237
(g6
(g10
S'\x00\x00\x00\x00'
p6238
tp6239
Rp6240
g6
(g10
S'\xa5\xa5\x83A'
p6241
tp6242
Rp6243
tp6244
s(g29
I142
tp6245
(g6
(g10
S'\x00\x00\x00\x00'
p6246
tp6247
Rp6248
g6
(g10
S'\xc1\xbe\x15A'
p6249
tp6250
Rp6251
tp6252
s(g38
I4
tp6253
(g6
(g10
S'\x00\x00\x00\x00'
p6254
tp6255
Rp6256
g6
(g10
S'\xe2\x85\x82A'
p6257
tp6258
Rp6259
tp6260
s(g38
I147
tp6261
(g6
(g10
S'\x00\x00\x00\x00'
p6262
tp6263
Rp6264
g6
(g10
S'\xb3\x8c\xa3A'
p6265
tp6266
Rp6267
tp6268
s(g4
I3
tp6269
(g6
(g10
S'\x00\x00\x00\x00'
p6270
tp6271
Rp6272
g6
(g10
S'7\xfaWA'
p6273
tp6274
Rp6275
tp6276
s(g20
I147
tp6277
(g6
(g10
S'\x00\x00\x00\x00'
p6278
tp6279
Rp6280
g6
(g10
S'\x0bw\xd6@'
p6281
tp6282
Rp6283
tp6284
s(g4
I152
tp6285
(g6
(g10
S'\x00\x00\x00\x00'
p6286
tp6287
Rp6288
g6
(g10
S'\x86H\xfc>'
p6289
tp6290
Rp6291
tp6292
s(g20
I26
tp6293
(g6
(g10
S'\x00\x00\x00\x00'
p6294
tp6295
Rp6296
g6
(g10
S'\r<\xfe@'
p6297
tp6298
Rp6299
tp6300
s(g29
I148
tp6301
(g6
(g10
S'\x00\x00\x00\x00'
p6302
tp6303
Rp6304
g6
(g10
S'\xef\x95\xadA'
p6305
tp6306
Rp6307
tp6308
s(g38
I62
tp6309
(g6
(g10
S'\x00\x00\x00\x00'
p6310
tp6311
Rp6312
g6
(g10
S'\xa0P:A'
p6313
tp6314
Rp6315
tp6316
s(g29
I29
tp6317
(g6
(g10
S'\x00\x00\x00\x00'
p6318
tp6319
Rp6320
g6
(g10
S'\xa9\xf1c@'
p6321
tp6322
Rp6323
tp6324
s(g38
I181
tp6325
(g6
(g10
S'\x00\x00\x00\x00'
p6326
tp6327
Rp6328
g6
(g10
S'B\x9eVA'
p6329
tp6330
Rp6331
tp6332
s(g4
I61
tp6333
(g6
(g10
S'\x00\x00\x00\x00'
p6334
tp6335
Rp6336
g6
(g10
S'\xb9F\xe0A'
p6337
tp6338
Rp6339
tp6340
s(g20
I185
tp6341
(g6
(g10
S'\x00\x00\x00\x00'
p6342
tp6343
Rp6344
g6
(g10
S'q\x9aGA'
p6345
tp6346
Rp6347
tp6348
s(g4
I178
tp6349
(g6
(g10
S'\x00\x00\x00\x00'
p6350
tp6351
Rp6352
g6
(g10
S'\xff\xfcEA'
p6353
tp6354
Rp6355
tp6356
s(g20
I32
tp6357
(g6
(g10
S'\x00\x00\x00\x00'
p6358
tp6359
Rp6360
g6
(g10
S'u\xd2\xc7@'
p6361
tp6362
Rp6363
tp6364
s(g29
I178
tp6365
(g6
(g10
S'\x00\x00\x00\x00'
p6366
tp6367
Rp6368
g6
(g10
S':\xae\x84A'
p6369
tp6370
Rp6371
tp6372
s(g29
I59
tp6373
(g6
(g10
S'\x00\x00\x00\x00'
p6374
tp6375
Rp6376
g6
(g10
S'+\xd0\xc0@'
p6377
tp6378
Rp6379
tp6380
s(g38
I175
tp6381
(g6
(g10
S'\x00\x00\x00\x00'
p6382
tp6383
Rp6384
g6
(g10
S'4\x96\x12A'
p6385
tp6386
Rp6387
tp6388
s(g4
I87
tp6389
(g6
(g10
S'\x00\x00\x00\x00'
p6390
tp6391
Rp6392
g6
(g10
S'r}\xe9@'
p6393
tp6394
Rp6395
tp6396
s(g4
I172
tp6397
(g6
(g10
S'\x00\x00\x00\x00'
p6398
tp6399
Rp6400
g6
(g10
S'\xa7\x9b\xf9@'
p6401
tp6402
Rp6403
tp6404
s(g20
I198
tp6405
(g6
(g10
S'\x00\x00\x00\x00'
p6406
tp6407
Rp6408
g6
(g10
S'\x81\xe3\x86>'
p6409
tp6410
Rp6411
tp6412
s(g29
I65
tp6413
(g6
(g10
S'\x00\x00\x00\x00'
p6414
tp6415
Rp6416
g6
(g10
S'\x04U\x1bA'
p6417
tp6418
Rp6419
tp6420
s(g38
I65
tp6421
(g6
(g10
S'\x00\x00\x00\x00'
p6422
tp6423
Rp6424
g6
(g10
S'\xd1\xd6\xa0A'
p6425
tp6426
Rp6427
tp6428
s(g4
I113
tp6429
(g6
(g10
S'\x00\x00\x00\x00'
p6430
tp6431
Rp6432
g6
(g10
S'-\x1e\xe2@'
p6433
tp6434
Rp6435
tp6436
s.